(dp0
S'explorations'
p1
ccopy_reg
_reconstructor
p2
(cdqn_utils
PiecewiseSchedule
p3
c__builtin__
object
p4
Ntp5
Rp6
(dp7
S'_interpolation'
p8
cdqn_utils
linear_interpolation
p9
sS'_outside_value'
p10
F0.01
sS'_endpoints'
p11
(lp12
(I0
F0.2
tp13
a(F1000000.0
F0.1
tp14
a(F5000000.0
F0.01
tp15
asbsS'best_mean_rewards'
p16
(lp17
cnumpy.core.multiarray
scalar
p18
(cnumpy
dtype
p19
(S'f8'
p20
I0
I1
tp21
Rp22
(I3
S'<'
p23
NNNI-1
I-1
I0
tp24
bS'\x071}/\x05Q\x10@'
p25
tp26
Rp27
ag27
ag27
ag27
ag27
ag27
ag18
(g22
S'\xca\xee\xf1id\x89\x11@'
p28
tp29
Rp30
ag30
ag30
ag30
ag30
ag30
ag30
ag18
(g22
S'\x0e\xfbM\xe0a\x83\x13@'
p31
tp32
Rp33
ag18
(g22
S'\xd7\xb3\xd2\xef\x06\xb6\x13@'
p34
tp35
Rp36
asS'learning_rates'
p37
(lp38
F0.0001
aF0.0001
aF0.0001
aF0.0001
aF0.0001
aF0.0001
aF0.0001
aF0.0001
aF0.0001
aF0.0001
aF0.0001
aF0.0001
aF0.0001
aF0.0001
aF0.0001
asS'mean_rewards'
p39
(lp40
g18
(g22
S'6\xc3\xe8\x99\x08F\x08@'
p41
tp42
Rp43
ag18
(g22
S'\x81"O\x83\xa0P\x02@'
p44
tp45
Rp46
ag18
(g22
S'(1s\x80\xa1\xef\xf4?'
p47
tp48
Rp49
ag18
(g22
S'\x04\xa1\xc2\x1c\r\x1a\x01@'
p50
tp51
Rp52
ag18
(g22
S'\x86O\x04\x8c\xfeE\x0b@'
p53
tp54
Rp55
ag18
(g22
S'\x89R\xf5\xeaC@\x0e@'
p56
tp57
Rp58
ag18
(g22
S'O\xe8\xab\xdd\xac\xf3\x0f@'
p59
tp60
Rp61
ag18
(g22
S'\xe9O/<\x9d\x0c\x0c@'
p62
tp63
Rp64
ag18
(g22
S'\x8dr\xb2<\x17\x9d\x0e@'
p65
tp66
Rp67
ag18
(g22
S'\xe3B\xa3u\xd6G\x0c@'
p68
tp69
Rp70
ag18
(g22
S'\xb7+\x8fE\xe2\xc0\x0c@'
p71
tp72
Rp73
ag18
(g22
S'<h\xdf"\xcd=\r@'
p74
tp75
Rp76
ag18
(g22
S';U=\xf8w_\x0b@'
p77
tp78
Rp79
ag18
(g22
S'\xaf}\xdb\xbe<z\x13@'
p80
tp81
Rp82
ag18
(g22
S"\x9d\xd1qf\xc4'\x10@"
p83
tp84
Rp85
asS'ts'
p86
(lp87
I60000
aI70000
aI80000
aI90000
aI100000
aI110000
aI120000
aI130000
aI140000
aI150000
aI160000
aI170000
aI180000
aI190000
aI200000
asS'episodes'
p88
(lp89
I401
aI436
aI470
aI523
aI595
aI671
aI750
aI833
aI922
aI1014
aI1104
aI1207
aI1295
aI1397
aI1492
as.