(dp0
S'explorations'
p1
ccopy_reg
_reconstructor
p2
(cdqn_utils
PiecewiseSchedule
p3
c__builtin__
object
p4
Ntp5
Rp6
(dp7
S'_interpolation'
p8
cdqn_utils
linear_interpolation
p9
sS'_outside_value'
p10
F0.01
sS'_endpoints'
p11
(lp12
(I0
F0.2
tp13
a(F1000000.0
F0.1
tp14
a(F5000000.0
F0.01
tp15
asbsS'best_mean_rewards'
p16
(lp17
cnumpy.core.multiarray
scalar
p18
(cnumpy
dtype
p19
(S'f8'
p20
I0
I1
tp21
Rp22
(I3
S'<'
p23
NNNI-1
I-1
I0
tp24
bS'\x071}/\x05Q\x10@'
p25
tp26
Rp27
ag27
ag27
ag27
ag27
ag27
ag18
(g22
S'\xca\xee\xf1id\x89\x11@'
p28
tp29
Rp30
ag30
ag30
ag30
ag30
ag30
ag30
ag18
(g22
S'\x0e\xfbM\xe0a\x83\x13@'
p31
tp32
Rp33
ag18
(g22
S'\xd7\xb3\xd2\xef\x06\xb6\x13@'
p34
tp35
Rp36
ag36
ag36
ag36
ag36
ag36
ag36
ag18
(g22
S'\xc2o\x08\x8e=\xe2\x13@'
p37
tp38
Rp39
ag39
ag18
(g22
S'r\xc3X\xbc\x18\xe6\x15@'
p40
tp41
Rp42
ag42
ag42
ag42
ag42
ag42
ag42
ag42
ag42
ag42
ag42
ag42
ag42
ag42
ag42
ag18
(g22
S')96z\xee(\x16@'
p43
tp44
Rp45
ag45
ag45
ag45
ag45
ag45
ag45
ag45
ag45
ag45
ag45
ag45
ag45
ag45
ag45
ag45
ag45
ag45
ag45
ag45
ag45
ag45
ag45
ag45
ag18
(g22
S'\xdf\x83p\x80\xbdP\x16@'
p46
tp47
Rp48
ag48
ag48
ag48
ag48
ag48
ag48
ag48
ag48
ag48
ag48
ag48
ag48
asS'learning_rates'
p49
(lp50
F0.0001
aF0.0001
aF0.0001
aF0.0001
aF0.0001
aF0.0001
aF0.0001
aF0.0001
aF0.0001
aF0.0001
aF0.0001
aF0.0001
aF0.0001
aF0.0001
aF0.0001
aF0.0001
aF0.0001
aF0.0001
aF0.0001
aF0.0001
aF0.0001
aF0.0001
aF0.0001
aF0.0001
aF0.0001
aF0.0001
aF0.0001
aF0.0001
aF0.0001
aF0.0001
aF0.0001
aF0.0001
aF0.0001
aF0.0001
aF0.0001
aF0.0001
aF0.0001
aF0.0001
aF0.0001
aF0.0001
aF0.0001
aF0.0001
aF0.0001
aF0.0001
aF0.0001
aF0.0001
aF0.0001
aF0.0001
aF0.0001
aF0.0001
aF0.0001
aF0.0001
aF0.0001
aF0.0001
aF0.0001
aF0.0001
aF0.0001
aF0.0001
aF0.0001
aF0.0001
aF0.0001
aF0.0001
aF0.0001
aF0.0001
aF0.0001
aF0.0001
aF0.0001
aF0.0001
aF0.0001
aF0.0001
aF0.0001
aF0.0001
aF0.0001
aF0.0001
aF0.0001
asS'mean_rewards'
p51
(lp52
g18
(g22
S'6\xc3\xe8\x99\x08F\x08@'
p53
tp54
Rp55
ag18
(g22
S'\x81"O\x83\xa0P\x02@'
p56
tp57
Rp58
ag18
(g22
S'(1s\x80\xa1\xef\xf4?'
p59
tp60
Rp61
ag18
(g22
S'\x04\xa1\xc2\x1c\r\x1a\x01@'
p62
tp63
Rp64
ag18
(g22
S'\x86O\x04\x8c\xfeE\x0b@'
p65
tp66
Rp67
ag18
(g22
S'\x89R\xf5\xeaC@\x0e@'
p68
tp69
Rp70
ag18
(g22
S'O\xe8\xab\xdd\xac\xf3\x0f@'
p71
tp72
Rp73
ag18
(g22
S'\xe9O/<\x9d\x0c\x0c@'
p74
tp75
Rp76
ag18
(g22
S'\x8dr\xb2<\x17\x9d\x0e@'
p77
tp78
Rp79
ag18
(g22
S'\xe3B\xa3u\xd6G\x0c@'
p80
tp81
Rp82
ag18
(g22
S'\xb7+\x8fE\xe2\xc0\x0c@'
p83
tp84
Rp85
ag18
(g22
S'<h\xdf"\xcd=\r@'
p86
tp87
Rp88
ag18
(g22
S';U=\xf8w_\x0b@'
p89
tp90
Rp91
ag18
(g22
S'\xaf}\xdb\xbe<z\x13@'
p92
tp93
Rp94
ag18
(g22
S"\x9d\xd1qf\xc4'\x10@"
p95
tp96
Rp97
ag18
(g22
S'\x97/\x1f\x9e\xce\x13\x11@'
p98
tp99
Rp100
ag18
(g22
S'\xef\x9b/Y\x8a\xe2\x11@'
p101
tp102
Rp103
ag18
(g22
S'\xfa\xd0E18;\x0b@'
p104
tp105
Rp106
ag18
(g22
S'\xfdd\xfe\\\xc8w\x11@'
p107
tp108
Rp109
ag18
(g22
S'\xe33K\xe9\xaaZ\x0e@'
p110
tp111
Rp112
ag18
(g22
S'\xad<\x15\t\xf0\xb7\x11@'
p113
tp114
Rp115
ag18
(g22
S'c\xaf\x0b\xd1\xdd\xca\x11@'
p116
tp117
Rp118
ag18
(g22
S"\x1fP\n'\xb2Y\x12@"
p119
tp120
Rp121
ag18
(g22
S'@\xe5\xce\xe0\x07\r\x15@'
p122
tp123
Rp124
ag18
(g22
S'\x14\xbd<X\x83\xe6\x13@'
p125
tp126
Rp127
ag18
(g22
S'}\xa9]\x99?\xff\x14@'
p128
tp129
Rp130
ag18
(g22
S'\x8d\xdf\x9d\xfa/%\x13@'
p131
tp132
Rp133
ag18
(g22
S'\xf6\x8fn\x9dJj\x13@'
p134
tp135
Rp136
ag18
(g22
S'\x88\x02\xbdk\x8a \x14@'
p137
tp138
Rp139
ag18
(g22
S'\xa2\x17\xdaJ\x00\xcf\x11@'
p140
tp141
Rp142
ag18
(g22
S'2\xb7\xd3\xc4\x1cv\x12@'
p143
tp144
Rp145
ag18
(g22
S'\xff\xf3\xb2\x04xl\x12@'
p146
tp147
Rp148
ag18
(g22
S'Xq/\x85o\x98\x11@'
p149
tp150
Rp151
ag18
(g22
S'\x1c\x04\xe3\x06\xda\x12\x11@'
p152
tp153
Rp154
ag18
(g22
S'h\xd9G\xe8\xdb|\x13@'
p155
tp156
Rp157
ag18
(g22
S'\xc6N\xdc\x9bE\xba\x14@'
p158
tp159
Rp160
ag18
(g22
S'\xac\xd7\x1b\xeb\xc3\xe5\x12@'
p161
tp162
Rp163
ag18
(g22
S'kO\xcd~\xf8\xef\x13@'
p164
tp165
Rp166
ag18
(g22
S'R4"/\xf3\xf5\x15@'
p167
tp168
Rp169
ag18
(g22
S'\xbd\xd8\xc4c\xc9\x8c\x13@'
p170
tp171
Rp172
ag18
(g22
S'\x14\xf8;\xe5\xbe\x83\x13@'
p173
tp174
Rp175
ag18
(g22
S'\x1b\xc8\x8f]0+\x14@'
p176
tp177
Rp178
ag18
(g22
S'\xff78\x96\xca \x14@'
p179
tp180
Rp181
ag18
(g22
S',W\x90Q\x86s\x14@'
p182
tp183
Rp184
ag18
(g22
S'\t\x91\x0b\x89\xf2\xa7\x11@'
p185
tp186
Rp187
ag18
(g22
S'\xb2^"\xe2\x14D\x14@'
p188
tp189
Rp190
ag18
(g22
S'\xd1\x91\xf8\x80\x93\x1a\x14@'
p191
tp192
Rp193
ag18
(g22
S'\xa3\xdfop\x9a\xe9\x13@'
p194
tp195
Rp196
ag18
(g22
S'\n\x9b\xe3h\xc1\xd8\x12@'
p197
tp198
Rp199
ag18
(g22
S'\xc1\x97\x8e\xd2\x9d\x1c\x15@'
p200
tp201
Rp202
ag18
(g22
S'\xa8F\xe7\xfc|1\x14@'
p203
tp204
Rp205
ag18
(g22
S'\x93~2,j\xb6\x13@'
p206
tp207
Rp208
ag18
(g22
S'\xcb\x15\xecP\xc6c\x14@'
p209
tp210
Rp211
ag18
(g22
S'\x03\x97o\xcc[m\x13@'
p212
tp213
Rp214
ag18
(g22
S'<\xc3)\xcdg\x8d\x13@'
p215
tp216
Rp217
ag18
(g22
S'\xc3\xad6\x04\x8f\x15\x12@'
p218
tp219
Rp220
ag18
(g22
S'\xb8x\x84\xc0\xcb\xd5\x14@'
p221
tp222
Rp223
ag18
(g22
S'\\.7m\xb9\x1b\x14@'
p224
tp225
Rp226
ag18
(g22
S'\xde\x01\xc8\xb9\xff^\x12@'
p227
tp228
Rp229
ag18
(g22
S'L)$\xe6\t\xb1\x14@'
p230
tp231
Rp232
ag18
(g22
S'$\x87\\\xab\x1a\xca\x12@'
p233
tp234
Rp235
ag18
(g22
S'?\xe3\xae\x83\xd46\x15@'
p236
tp237
Rp238
ag18
(g22
S'\x91%\xb4\xfc\xb7\x98\x14@'
p239
tp240
Rp241
ag18
(g22
S'\xca\x91\r\x80sP\x15@'
p242
tp243
Rp244
ag18
(g22
S'\x96@\x0c\x93\x92\xe1\x13@'
p245
tp246
Rp247
ag18
(g22
S'\xc9\x8e\xc2\x18\xaa$\x14@'
p248
tp249
Rp250
ag18
(g22
S'Z\x0c\x07L\x12\x89\x12@'
p251
tp252
Rp253
ag18
(g22
S'C\x9d\xf4@\x81\x93\x11@'
p254
tp255
Rp256
ag18
(g22
S'T\xea\xd4\xfa\xd7\xd2\x13@'
p257
tp258
Rp259
ag18
(g22
S'\x8f\x10Q\x9a\x90\xaa\r@'
p260
tp261
Rp262
ag18
(g22
S'\xf737U<z\x11@'
p263
tp264
Rp265
ag18
(g22
S'\x18c\xa9\xa8\x83\x8a\x11@'
p266
tp267
Rp268
ag18
(g22
S'\n\xb8j\xee<\xc8\x11@'
p269
tp270
Rp271
ag18
(g22
S'\x9f\x15\xb2\xc3\x92\r\x14@'
p272
tp273
Rp274
ag18
(g22
S'\xdd\x06\x1b\x8d\xadN\x15@'
p275
tp276
Rp277
asS'ts'
p278
(lp279
I60000
aI70000
aI80000
aI90000
aI100000
aI110000
aI120000
aI130000
aI140000
aI150000
aI160000
aI170000
aI180000
aI190000
aI200000
aI210000
aI220000
aI230000
aI240000
aI250000
aI260000
aI270000
aI280000
aI290000
aI300000
aI310000
aI320000
aI330000
aI340000
aI350000
aI360000
aI370000
aI380000
aI390000
aI400000
aI410000
aI420000
aI430000
aI440000
aI450000
aI460000
aI470000
aI480000
aI490000
aI500000
aI510000
aI520000
aI530000
aI540000
aI550000
aI560000
aI570000
aI580000
aI590000
aI600000
aI610000
aI620000
aI630000
aI640000
aI650000
aI660000
aI670000
aI680000
aI690000
aI700000
aI710000
aI720000
aI730000
aI740000
aI750000
aI760000
aI770000
aI780000
aI790000
aI800000
asS'episodes'
p280
(lp281
I401
aI436
aI470
aI523
aI595
aI671
aI750
aI833
aI922
aI1014
aI1104
aI1207
aI1295
aI1397
aI1492
aI1597
aI1695
aI1772
aI1850
aI1924
aI2020
aI2080
aI2191
aI2301
aI2407
aI2524
aI2638
aI2769
aI2875
aI2960
aI3056
aI3153
aI3263
aI3363
aI3467
aI3573
aI3682
aI3766
aI3866
aI3982
aI4096
aI4207
aI4323
aI4406
aI4523
aI4633
aI4734
aI4828
aI4941
aI5068
aI5188
aI5313
aI5414
aI5538
aI5646
aI5769
aI5883
aI6000
aI6116
aI6242
aI6351
aI6474
aI6583
aI6689
aI6795
aI6908
aI7027
aI7146
aI7252
aI7367
aI7469
aI7572
aI7678
aI7793
aI7903
as.