(dp0
S'explorations'
p1
ccopy_reg
_reconstructor
p2
(cdqn_utils
PiecewiseSchedule
p3
c__builtin__
object
p4
Ntp5
Rp6
(dp7
S'_interpolation'
p8
cdqn_utils
linear_interpolation
p9
sS'_outside_value'
p10
F0.01
sS'_endpoints'
p11
(lp12
(I0
F0.2
tp13
a(F1000000.0
F0.1
tp14
a(F5000000.0
F0.01
tp15
asbsS'best_mean_rewards'
p16
(lp17
cnumpy.core.multiarray
scalar
p18
(cnumpy
dtype
p19
(S'f8'
p20
I0
I1
tp21
Rp22
(I3
S'<'
p23
NNNI-1
I-1
I0
tp24
bS'\x071}/\x05Q\x10@'
p25
tp26
Rp27
ag27
ag27
ag27
ag27
ag27
ag18
(g22
S'\xca\xee\xf1id\x89\x11@'
p28
tp29
Rp30
ag30
ag30
ag30
ag30
ag30
ag30
ag18
(g22
S'\x0e\xfbM\xe0a\x83\x13@'
p31
tp32
Rp33
ag18
(g22
S'\xd7\xb3\xd2\xef\x06\xb6\x13@'
p34
tp35
Rp36
ag36
ag36
ag36
ag36
ag36
ag36
ag18
(g22
S'\xc2o\x08\x8e=\xe2\x13@'
p37
tp38
Rp39
ag39
ag18
(g22
S'r\xc3X\xbc\x18\xe6\x15@'
p40
tp41
Rp42
ag42
ag42
ag42
ag42
ag42
ag42
ag42
ag42
ag42
ag42
ag42
ag42
ag42
ag42
ag18
(g22
S')96z\xee(\x16@'
p43
tp44
Rp45
ag45
ag45
ag45
ag45
ag45
ag45
ag45
ag45
ag45
ag45
ag45
ag45
ag45
ag45
ag45
ag45
ag45
ag45
ag45
ag45
ag45
ag45
ag45
ag18
(g22
S'\xdf\x83p\x80\xbdP\x16@'
p46
tp47
Rp48
ag48
ag48
ag48
ag48
ag48
ag48
ag48
ag48
ag48
ag48
ag48
ag48
ag48
ag48
ag48
ag48
ag48
ag48
ag48
ag48
ag48
ag48
ag48
ag18
(g22
S'\r\x00V\xa5A\x9d\x16@'
p49
tp50
Rp51
ag51
ag51
ag51
ag51
ag51
ag51
ag51
ag51
ag51
ag51
ag51
ag51
ag18
(g22
S'\xf1)\xd6\xcb\x87\xfb\x16@'
p52
tp53
Rp54
ag54
ag54
ag54
ag54
ag54
ag54
ag54
ag54
ag54
ag54
ag54
ag54
ag54
ag54
ag54
asS'learning_rates'
p55
(lp56
F0.0001
aF0.0001
aF0.0001
aF0.0001
aF0.0001
aF0.0001
aF0.0001
aF0.0001
aF0.0001
aF0.0001
aF0.0001
aF0.0001
aF0.0001
aF0.0001
aF0.0001
aF0.0001
aF0.0001
aF0.0001
aF0.0001
aF0.0001
aF0.0001
aF0.0001
aF0.0001
aF0.0001
aF0.0001
aF0.0001
aF0.0001
aF0.0001
aF0.0001
aF0.0001
aF0.0001
aF0.0001
aF0.0001
aF0.0001
aF0.0001
aF0.0001
aF0.0001
aF0.0001
aF0.0001
aF0.0001
aF0.0001
aF0.0001
aF0.0001
aF0.0001
aF0.0001
aF0.0001
aF0.0001
aF0.0001
aF0.0001
aF0.0001
aF0.0001
aF0.0001
aF0.0001
aF0.0001
aF0.0001
aF0.0001
aF0.0001
aF0.0001
aF0.0001
aF0.0001
aF0.0001
aF0.0001
aF0.0001
aF0.0001
aF0.0001
aF0.0001
aF0.0001
aF0.0001
aF0.0001
aF0.0001
aF0.0001
aF0.0001
aF0.0001
aF0.0001
aF0.0001
aF0.0001
aF0.0001
aF0.0001
aF0.0001
aF0.0001
aF0.0001
aF0.0001
aF0.0001
aF0.0001
aF0.0001
aF0.0001
aF0.0001
aF0.0001
aF0.0001
aF0.0001
aF0.0001
aF0.0001
aF0.0001
aF0.0001
aF0.0001
aF9.9875e-05
aF9.975e-05
aF9.962500000000001e-05
aF9.95e-05
aF9.9375e-05
aF9.925e-05
aF9.912500000000001e-05
aF9.900000000000001e-05
aF9.8875e-05
aF9.875e-05
aF9.8625e-05
aF9.850000000000001e-05
aF9.8375e-05
aF9.825e-05
aF9.8125e-05
aF9.800000000000001e-05
aF9.787500000000001e-05
aF9.775e-05
aF9.7625e-05
aF9.75e-05
asS'mean_rewards'
p57
(lp58
g18
(g22
S'6\xc3\xe8\x99\x08F\x08@'
p59
tp60
Rp61
ag18
(g22
S'\x81"O\x83\xa0P\x02@'
p62
tp63
Rp64
ag18
(g22
S'(1s\x80\xa1\xef\xf4?'
p65
tp66
Rp67
ag18
(g22
S'\x04\xa1\xc2\x1c\r\x1a\x01@'
p68
tp69
Rp70
ag18
(g22
S'\x86O\x04\x8c\xfeE\x0b@'
p71
tp72
Rp73
ag18
(g22
S'\x89R\xf5\xeaC@\x0e@'
p74
tp75
Rp76
ag18
(g22
S'O\xe8\xab\xdd\xac\xf3\x0f@'
p77
tp78
Rp79
ag18
(g22
S'\xe9O/<\x9d\x0c\x0c@'
p80
tp81
Rp82
ag18
(g22
S'\x8dr\xb2<\x17\x9d\x0e@'
p83
tp84
Rp85
ag18
(g22
S'\xe3B\xa3u\xd6G\x0c@'
p86
tp87
Rp88
ag18
(g22
S'\xb7+\x8fE\xe2\xc0\x0c@'
p89
tp90
Rp91
ag18
(g22
S'<h\xdf"\xcd=\r@'
p92
tp93
Rp94
ag18
(g22
S';U=\xf8w_\x0b@'
p95
tp96
Rp97
ag18
(g22
S'\xaf}\xdb\xbe<z\x13@'
p98
tp99
Rp100
ag18
(g22
S"\x9d\xd1qf\xc4'\x10@"
p101
tp102
Rp103
ag18
(g22
S'\x97/\x1f\x9e\xce\x13\x11@'
p104
tp105
Rp106
ag18
(g22
S'\xef\x9b/Y\x8a\xe2\x11@'
p107
tp108
Rp109
ag18
(g22
S'\xfa\xd0E18;\x0b@'
p110
tp111
Rp112
ag18
(g22
S'\xfdd\xfe\\\xc8w\x11@'
p113
tp114
Rp115
ag18
(g22
S'\xe33K\xe9\xaaZ\x0e@'
p116
tp117
Rp118
ag18
(g22
S'\xad<\x15\t\xf0\xb7\x11@'
p119
tp120
Rp121
ag18
(g22
S'c\xaf\x0b\xd1\xdd\xca\x11@'
p122
tp123
Rp124
ag18
(g22
S"\x1fP\n'\xb2Y\x12@"
p125
tp126
Rp127
ag18
(g22
S'@\xe5\xce\xe0\x07\r\x15@'
p128
tp129
Rp130
ag18
(g22
S'\x14\xbd<X\x83\xe6\x13@'
p131
tp132
Rp133
ag18
(g22
S'}\xa9]\x99?\xff\x14@'
p134
tp135
Rp136
ag18
(g22
S'\x8d\xdf\x9d\xfa/%\x13@'
p137
tp138
Rp139
ag18
(g22
S'\xf6\x8fn\x9dJj\x13@'
p140
tp141
Rp142
ag18
(g22
S'\x88\x02\xbdk\x8a \x14@'
p143
tp144
Rp145
ag18
(g22
S'\xa2\x17\xdaJ\x00\xcf\x11@'
p146
tp147
Rp148
ag18
(g22
S'2\xb7\xd3\xc4\x1cv\x12@'
p149
tp150
Rp151
ag18
(g22
S'\xff\xf3\xb2\x04xl\x12@'
p152
tp153
Rp154
ag18
(g22
S'Xq/\x85o\x98\x11@'
p155
tp156
Rp157
ag18
(g22
S'\x1c\x04\xe3\x06\xda\x12\x11@'
p158
tp159
Rp160
ag18
(g22
S'h\xd9G\xe8\xdb|\x13@'
p161
tp162
Rp163
ag18
(g22
S'\xc6N\xdc\x9bE\xba\x14@'
p164
tp165
Rp166
ag18
(g22
S'\xac\xd7\x1b\xeb\xc3\xe5\x12@'
p167
tp168
Rp169
ag18
(g22
S'kO\xcd~\xf8\xef\x13@'
p170
tp171
Rp172
ag18
(g22
S'R4"/\xf3\xf5\x15@'
p173
tp174
Rp175
ag18
(g22
S'\xbd\xd8\xc4c\xc9\x8c\x13@'
p176
tp177
Rp178
ag18
(g22
S'\x14\xf8;\xe5\xbe\x83\x13@'
p179
tp180
Rp181
ag18
(g22
S'\x1b\xc8\x8f]0+\x14@'
p182
tp183
Rp184
ag18
(g22
S'\xff78\x96\xca \x14@'
p185
tp186
Rp187
ag18
(g22
S',W\x90Q\x86s\x14@'
p188
tp189
Rp190
ag18
(g22
S'\t\x91\x0b\x89\xf2\xa7\x11@'
p191
tp192
Rp193
ag18
(g22
S'\xb2^"\xe2\x14D\x14@'
p194
tp195
Rp196
ag18
(g22
S'\xd1\x91\xf8\x80\x93\x1a\x14@'
p197
tp198
Rp199
ag18
(g22
S'\xa3\xdfop\x9a\xe9\x13@'
p200
tp201
Rp202
ag18
(g22
S'\n\x9b\xe3h\xc1\xd8\x12@'
p203
tp204
Rp205
ag18
(g22
S'\xc1\x97\x8e\xd2\x9d\x1c\x15@'
p206
tp207
Rp208
ag18
(g22
S'\xa8F\xe7\xfc|1\x14@'
p209
tp210
Rp211
ag18
(g22
S'\x93~2,j\xb6\x13@'
p212
tp213
Rp214
ag18
(g22
S'\xcb\x15\xecP\xc6c\x14@'
p215
tp216
Rp217
ag18
(g22
S'\x03\x97o\xcc[m\x13@'
p218
tp219
Rp220
ag18
(g22
S'<\xc3)\xcdg\x8d\x13@'
p221
tp222
Rp223
ag18
(g22
S'\xc3\xad6\x04\x8f\x15\x12@'
p224
tp225
Rp226
ag18
(g22
S'\xb8x\x84\xc0\xcb\xd5\x14@'
p227
tp228
Rp229
ag18
(g22
S'\\.7m\xb9\x1b\x14@'
p230
tp231
Rp232
ag18
(g22
S'\xde\x01\xc8\xb9\xff^\x12@'
p233
tp234
Rp235
ag18
(g22
S'L)$\xe6\t\xb1\x14@'
p236
tp237
Rp238
ag18
(g22
S'$\x87\\\xab\x1a\xca\x12@'
p239
tp240
Rp241
ag18
(g22
S'?\xe3\xae\x83\xd46\x15@'
p242
tp243
Rp244
ag18
(g22
S'\x91%\xb4\xfc\xb7\x98\x14@'
p245
tp246
Rp247
ag18
(g22
S'\xca\x91\r\x80sP\x15@'
p248
tp249
Rp250
ag18
(g22
S'\x96@\x0c\x93\x92\xe1\x13@'
p251
tp252
Rp253
ag18
(g22
S'\xc9\x8e\xc2\x18\xaa$\x14@'
p254
tp255
Rp256
ag18
(g22
S'Z\x0c\x07L\x12\x89\x12@'
p257
tp258
Rp259
ag18
(g22
S'C\x9d\xf4@\x81\x93\x11@'
p260
tp261
Rp262
ag18
(g22
S'T\xea\xd4\xfa\xd7\xd2\x13@'
p263
tp264
Rp265
ag18
(g22
S'\x8f\x10Q\x9a\x90\xaa\r@'
p266
tp267
Rp268
ag18
(g22
S'\xf737U<z\x11@'
p269
tp270
Rp271
ag18
(g22
S'\x18c\xa9\xa8\x83\x8a\x11@'
p272
tp273
Rp274
ag18
(g22
S'\n\xb8j\xee<\xc8\x11@'
p275
tp276
Rp277
ag18
(g22
S'\x9f\x15\xb2\xc3\x92\r\x14@'
p278
tp279
Rp280
ag18
(g22
S'\xdd\x06\x1b\x8d\xadN\x15@'
p281
tp282
Rp283
ag18
(g22
S'\xf3\xb6\x9f\x8b\xa7\xd6\x14@'
p284
tp285
Rp286
ag18
(g22
S'w\x1d\xa7\x19\xe7\xcb\x12@'
p287
tp288
Rp289
ag18
(g22
S'\x19]k\xd4\xf9\xcb\x12@'
p290
tp291
Rp292
ag18
(g22
S'`\xf7\x9b\xb6\x00\xed\x12@'
p293
tp294
Rp295
ag18
(g22
S'\x93`\x81\x0c\xe0Q\x14@'
p296
tp297
Rp298
ag18
(g22
S'\x14\x81\xdf\xee3\xdb\x14@'
p299
tp300
Rp301
ag18
(g22
S'\x7f/\xb6\xfb\x88T\x14@'
p302
tp303
Rp304
ag18
(g22
S'~\xe9\xb3\x99\xc0a\x13@'
p305
tp306
Rp307
ag18
(g22
S'xG\x9erB\x84\x14@'
p308
tp309
Rp310
ag18
(g22
S'jr{_-\x1e\x13@'
p311
tp312
Rp313
ag18
(g22
S'\xc3\xecVqOd\x15@'
p314
tp315
Rp316
ag18
(g22
S'\t\xe2\x8c\xdb\x8a\xf0\x12@'
p317
tp318
Rp319
ag18
(g22
S'V\xfb\xc6\x8b\x04\x82\x14@'
p320
tp321
Rp322
ag18
(g22
S',%I\xf3p{\x12@'
p323
tp324
Rp325
ag18
(g22
S'~\x86\\\xf6\x87\x19\x13@'
p326
tp327
Rp328
ag18
(g22
S'F\x1bA\xc7\xdf\xb1\x14@'
p329
tp330
Rp331
ag18
(g22
S'\x1aIko9\xff\x12@'
p332
tp333
Rp334
ag18
(g22
S'S\x96\x98\xf0,\x81\x11@'
p335
tp336
Rp337
ag18
(g22
S'\xb3$\x0c\xf9\xf9U\x15@'
p338
tp339
Rp340
ag18
(g22
S'W\x95U_\x07\xb2\x15@'
p341
tp342
Rp343
ag18
(g22
S'\xf6]\x8ePy\xe5\x14@'
p344
tp345
Rp346
ag18
(g22
S'\x122\xc8\xa6\xdez\x15@'
p347
tp348
Rp349
ag18
(g22
S'\x1a\xe1\x94\x9c\x95\x1c\x14@'
p350
tp351
Rp352
ag18
(g22
S'2\xcc\xe7\x14\x1e\xc1\x14@'
p353
tp354
Rp355
ag18
(g22
S'\xb5\xban\x16\x0b\xb6\x13@'
p356
tp357
Rp358
ag18
(g22
S'\xfb*\xdbz\xb1\xbe\x13@'
p359
tp360
Rp361
ag18
(g22
S'F"C\x92\xbf\x11\x14@'
p362
tp363
Rp364
ag18
(g22
S'\xb8\x03g\x92_D\x14@'
p365
tp366
Rp367
ag18
(g22
S'\xfau\xa6\x07A\xea\x13@'
p368
tp369
Rp370
ag18
(g22
S'\xa8-N\x8a\xfe\xbd\x13@'
p371
tp372
Rp373
ag18
(g22
S'@\x1f^yA\x8b\x13@'
p374
tp375
Rp376
ag18
(g22
S"\x0f:p>\xd7'\x11@"
p377
tp378
Rp379
ag18
(g22
S'\xd5i\xb9\xae\xa0\xb4\x13@'
p380
tp381
Rp382
ag18
(g22
S'\x8d=\xe1g\xc4&\x14@'
p383
tp384
Rp385
ag18
(g22
S'\x97\xa2\x93-H\xd7\x14@'
p386
tp387
Rp388
ag18
(g22
S'@\xbf`\x85\x968\x13@'
p389
tp390
Rp391
ag18
(g22
S'\xf6D\xd1\x0eZ\xf8\x14@'
p392
tp393
Rp394
ag18
(g22
S'\x8364q\x91i\x13@'
p395
tp396
Rp397
ag18
(g22
S'(\x10\x99r\x89\xfb\x14@'
p398
tp399
Rp400
ag18
(g22
S'\xfde6o\x13\xfa\x14@'
p401
tp402
Rp403
asS'ts'
p404
(lp405
I60000
aI70000
aI80000
aI90000
aI100000
aI110000
aI120000
aI130000
aI140000
aI150000
aI160000
aI170000
aI180000
aI190000
aI200000
aI210000
aI220000
aI230000
aI240000
aI250000
aI260000
aI270000
aI280000
aI290000
aI300000
aI310000
aI320000
aI330000
aI340000
aI350000
aI360000
aI370000
aI380000
aI390000
aI400000
aI410000
aI420000
aI430000
aI440000
aI450000
aI460000
aI470000
aI480000
aI490000
aI500000
aI510000
aI520000
aI530000
aI540000
aI550000
aI560000
aI570000
aI580000
aI590000
aI600000
aI610000
aI620000
aI630000
aI640000
aI650000
aI660000
aI670000
aI680000
aI690000
aI700000
aI710000
aI720000
aI730000
aI740000
aI750000
aI760000
aI770000
aI780000
aI790000
aI800000
aI810000
aI820000
aI830000
aI840000
aI850000
aI860000
aI870000
aI880000
aI890000
aI900000
aI910000
aI920000
aI930000
aI940000
aI950000
aI960000
aI970000
aI980000
aI990000
aI1000000
aI1010000
aI1020000
aI1030000
aI1040000
aI1050000
aI1060000
aI1070000
aI1080000
aI1090000
aI1100000
aI1110000
aI1120000
aI1130000
aI1140000
aI1150000
aI1160000
aI1170000
aI1180000
aI1190000
aI1200000
asS'episodes'
p406
(lp407
I401
aI436
aI470
aI523
aI595
aI671
aI750
aI833
aI922
aI1014
aI1104
aI1207
aI1295
aI1397
aI1492
aI1597
aI1695
aI1772
aI1850
aI1924
aI2020
aI2080
aI2191
aI2301
aI2407
aI2524
aI2638
aI2769
aI2875
aI2960
aI3056
aI3153
aI3263
aI3363
aI3467
aI3573
aI3682
aI3766
aI3866
aI3982
aI4096
aI4207
aI4323
aI4406
aI4523
aI4633
aI4734
aI4828
aI4941
aI5068
aI5188
aI5313
aI5414
aI5538
aI5646
aI5769
aI5883
aI6000
aI6116
aI6242
aI6351
aI6474
aI6583
aI6689
aI6795
aI6908
aI7027
aI7146
aI7252
aI7367
aI7469
aI7572
aI7678
aI7793
aI7903
aI8014
aI8114
aI8218
aI8314
aI8415
aI8519
aI8625
aI8749
aI8864
aI8977
aI9104
aI9234
aI9361
aI9473
aI9572
aI9667
aI9787
aI9896
aI10004
aI10119
aI10232
aI10349
aI10467
aI10584
aI10705
aI10819
aI10926
aI11027
aI11125
aI11231
aI11345
aI11456
aI11581
aI11694
aI11795
aI11895
aI11990
aI12076
aI12181
aI12287
as.