(dp0
S'explorations'
p1
ccopy_reg
_reconstructor
p2
(cdqn_utils
PiecewiseSchedule
p3
c__builtin__
object
p4
Ntp5
Rp6
(dp7
S'_interpolation'
p8
cdqn_utils
linear_interpolation
p9
sS'_outside_value'
p10
F0.01
sS'_endpoints'
p11
(lp12
(I0
F0.2
tp13
a(F1000000.0
F0.1
tp14
a(F5000000.0
F0.01
tp15
asbsS'best_mean_rewards'
p16
(lp17
cnumpy.core.multiarray
scalar
p18
(cnumpy
dtype
p19
(S'f8'
p20
I0
I1
tp21
Rp22
(I3
S'<'
p23
NNNI-1
I-1
I0
tp24
bS'\x071}/\x05Q\x10@'
p25
tp26
Rp27
ag27
ag27
ag27
ag27
ag27
ag18
(g22
S'\xca\xee\xf1id\x89\x11@'
p28
tp29
Rp30
ag30
ag30
ag30
ag30
ag30
ag30
ag18
(g22
S'\x0e\xfbM\xe0a\x83\x13@'
p31
tp32
Rp33
ag18
(g22
S'\xd7\xb3\xd2\xef\x06\xb6\x13@'
p34
tp35
Rp36
ag36
ag36
ag36
ag36
ag36
ag36
ag18
(g22
S'\xc2o\x08\x8e=\xe2\x13@'
p37
tp38
Rp39
ag39
ag18
(g22
S'r\xc3X\xbc\x18\xe6\x15@'
p40
tp41
Rp42
ag42
ag42
ag42
ag42
ag42
ag42
ag42
ag42
ag42
ag42
ag42
ag42
ag42
ag42
ag18
(g22
S')96z\xee(\x16@'
p43
tp44
Rp45
ag45
ag45
ag45
ag45
ag45
ag45
ag45
ag45
ag45
ag45
ag45
ag45
ag45
ag45
ag45
ag45
ag45
ag45
ag45
ag45
ag45
ag45
ag45
ag18
(g22
S'\xdf\x83p\x80\xbdP\x16@'
p46
tp47
Rp48
ag48
ag48
ag48
ag48
ag48
ag48
ag48
ag48
ag48
ag48
ag48
ag48
ag48
ag48
ag48
ag48
ag48
ag48
ag48
ag48
ag48
ag48
ag48
ag18
(g22
S'\r\x00V\xa5A\x9d\x16@'
p49
tp50
Rp51
ag51
ag51
ag51
ag51
ag51
ag51
ag51
ag51
ag51
ag51
ag51
ag51
ag18
(g22
S'\xf1)\xd6\xcb\x87\xfb\x16@'
p52
tp53
Rp54
ag54
ag54
ag54
ag54
ag54
ag54
ag54
ag54
ag54
ag54
ag54
ag54
ag54
ag54
ag54
ag54
ag54
ag54
ag54
ag54
ag54
ag54
ag54
ag54
ag54
ag54
ag54
ag54
ag54
ag54
ag54
ag54
ag54
ag54
ag54
ag54
ag54
ag54
ag54
ag54
ag54
ag54
ag54
ag54
ag54
ag54
ag54
ag54
ag54
ag54
ag54
ag54
ag54
ag54
ag54
ag54
ag54
ag54
ag54
ag54
ag54
ag54
ag54
ag54
ag54
ag54
ag54
ag54
ag54
ag54
ag54
ag54
ag54
ag54
ag54
ag54
ag54
ag54
ag54
ag54
ag54
ag54
ag54
ag54
ag54
ag54
ag54
ag54
ag54
ag54
ag54
ag54
ag54
ag54
ag54
ag54
ag54
ag54
ag54
ag54
ag54
ag54
ag54
ag54
ag54
ag54
ag54
ag54
ag54
ag54
ag54
ag54
ag54
ag54
ag54
ag54
ag54
ag54
ag54
ag54
ag54
ag54
ag54
ag54
ag54
ag54
ag54
ag54
ag54
ag54
ag54
ag54
ag54
ag54
ag54
asS'learning_rates'
p55
(lp56
F0.0001
aF0.0001
aF0.0001
aF0.0001
aF0.0001
aF0.0001
aF0.0001
aF0.0001
aF0.0001
aF0.0001
aF0.0001
aF0.0001
aF0.0001
aF0.0001
aF0.0001
aF0.0001
aF0.0001
aF0.0001
aF0.0001
aF0.0001
aF0.0001
aF0.0001
aF0.0001
aF0.0001
aF0.0001
aF0.0001
aF0.0001
aF0.0001
aF0.0001
aF0.0001
aF0.0001
aF0.0001
aF0.0001
aF0.0001
aF0.0001
aF0.0001
aF0.0001
aF0.0001
aF0.0001
aF0.0001
aF0.0001
aF0.0001
aF0.0001
aF0.0001
aF0.0001
aF0.0001
aF0.0001
aF0.0001
aF0.0001
aF0.0001
aF0.0001
aF0.0001
aF0.0001
aF0.0001
aF0.0001
aF0.0001
aF0.0001
aF0.0001
aF0.0001
aF0.0001
aF0.0001
aF0.0001
aF0.0001
aF0.0001
aF0.0001
aF0.0001
aF0.0001
aF0.0001
aF0.0001
aF0.0001
aF0.0001
aF0.0001
aF0.0001
aF0.0001
aF0.0001
aF0.0001
aF0.0001
aF0.0001
aF0.0001
aF0.0001
aF0.0001
aF0.0001
aF0.0001
aF0.0001
aF0.0001
aF0.0001
aF0.0001
aF0.0001
aF0.0001
aF0.0001
aF0.0001
aF0.0001
aF0.0001
aF0.0001
aF0.0001
aF9.9875e-05
aF9.975e-05
aF9.962500000000001e-05
aF9.95e-05
aF9.9375e-05
aF9.925e-05
aF9.912500000000001e-05
aF9.900000000000001e-05
aF9.8875e-05
aF9.875e-05
aF9.8625e-05
aF9.850000000000001e-05
aF9.8375e-05
aF9.825e-05
aF9.8125e-05
aF9.800000000000001e-05
aF9.787500000000001e-05
aF9.775e-05
aF9.7625e-05
aF9.75e-05
aF9.737500000000001e-05
aF9.725e-05
aF9.7125e-05
aF9.7e-05
aF9.687500000000001e-05
aF9.675000000000001e-05
aF9.6625e-05
aF9.65e-05
aF9.6375e-05
aF9.625000000000001e-05
aF9.6125e-05
aF9.6e-05
aF9.5875e-05
aF9.575000000000001e-05
aF9.562500000000001e-05
aF9.55e-05
aF9.5375e-05
aF9.525000000000001e-05
aF9.512500000000001e-05
aF9.5e-05
aF9.4875e-05
aF9.475e-05
aF9.462500000000001e-05
aF9.45e-05
aF9.4375e-05
aF9.425e-05
aF9.412500000000001e-05
aF9.400000000000001e-05
aF9.3875e-05
aF9.375e-05
aF9.3625e-05
aF9.350000000000001e-05
aF9.3375e-05
aF9.325e-05
aF9.3125e-05
aF9.300000000000001e-05
aF9.287500000000001e-05
aF9.275e-05
aF9.2625e-05
aF9.25e-05
aF9.237500000000001e-05
aF9.225e-05
aF9.2125e-05
aF9.2e-05
aF9.1875e-05
aF9.175000000000001e-05
aF9.1625e-05
aF9.15e-05
aF9.137500000000001e-05
aF9.125000000000001e-05
aF9.1125e-05
aF9.1e-05
aF9.0875e-05
aF9.075000000000001e-05
aF9.062500000000001e-05
aF9.05e-05
aF9.0375e-05
aF9.025e-05
aF9.012500000000001e-05
aF9e-05
aF8.9875e-05
aF8.975e-05
aF8.962500000000001e-05
aF8.950000000000001e-05
aF8.9375e-05
aF8.925e-05
aF8.912500000000001e-05
aF8.900000000000001e-05
aF8.8875e-05
aF8.875e-05
aF8.8625e-05
aF8.850000000000001e-05
aF8.837500000000001e-05
aF8.825e-05
aF8.8125e-05
aF8.8e-05
aF8.787500000000001e-05
aF8.775e-05
aF8.7625e-05
aF8.75e-05
aF8.737500000000001e-05
aF8.725e-05
aF8.7125e-05
aF8.7e-05
aF8.687500000000001e-05
aF8.675000000000001e-05
aF8.6625e-05
aF8.65e-05
aF8.6375e-05
aF8.625000000000001e-05
aF8.6125e-05
aF8.6e-05
aF8.5875e-05
aF8.575000000000001e-05
aF8.562500000000001e-05
aF8.55e-05
aF8.5375e-05
aF8.525000000000001e-05
aF8.512500000000001e-05
aF8.5e-05
aF8.4875e-05
aF8.475e-05
aF8.462500000000001e-05
aF8.450000000000001e-05
aF8.4375e-05
aF8.425e-05
aF8.4125e-05
aF8.400000000000001e-05
aF8.3875e-05
aF8.375e-05
aF8.3625e-05
aF8.35e-05
aF8.337500000000001e-05
aF8.325e-05
aF8.3125e-05
aF8.3e-05
aF8.2875e-05
aF8.275e-05
aF8.2625e-05
aF8.25e-05
asS'mean_rewards'
p57
(lp58
g18
(g22
S'6\xc3\xe8\x99\x08F\x08@'
p59
tp60
Rp61
ag18
(g22
S'\x81"O\x83\xa0P\x02@'
p62
tp63
Rp64
ag18
(g22
S'(1s\x80\xa1\xef\xf4?'
p65
tp66
Rp67
ag18
(g22
S'\x04\xa1\xc2\x1c\r\x1a\x01@'
p68
tp69
Rp70
ag18
(g22
S'\x86O\x04\x8c\xfeE\x0b@'
p71
tp72
Rp73
ag18
(g22
S'\x89R\xf5\xeaC@\x0e@'
p74
tp75
Rp76
ag18
(g22
S'O\xe8\xab\xdd\xac\xf3\x0f@'
p77
tp78
Rp79
ag18
(g22
S'\xe9O/<\x9d\x0c\x0c@'
p80
tp81
Rp82
ag18
(g22
S'\x8dr\xb2<\x17\x9d\x0e@'
p83
tp84
Rp85
ag18
(g22
S'\xe3B\xa3u\xd6G\x0c@'
p86
tp87
Rp88
ag18
(g22
S'\xb7+\x8fE\xe2\xc0\x0c@'
p89
tp90
Rp91
ag18
(g22
S'<h\xdf"\xcd=\r@'
p92
tp93
Rp94
ag18
(g22
S';U=\xf8w_\x0b@'
p95
tp96
Rp97
ag18
(g22
S'\xaf}\xdb\xbe<z\x13@'
p98
tp99
Rp100
ag18
(g22
S"\x9d\xd1qf\xc4'\x10@"
p101
tp102
Rp103
ag18
(g22
S'\x97/\x1f\x9e\xce\x13\x11@'
p104
tp105
Rp106
ag18
(g22
S'\xef\x9b/Y\x8a\xe2\x11@'
p107
tp108
Rp109
ag18
(g22
S'\xfa\xd0E18;\x0b@'
p110
tp111
Rp112
ag18
(g22
S'\xfdd\xfe\\\xc8w\x11@'
p113
tp114
Rp115
ag18
(g22
S'\xe33K\xe9\xaaZ\x0e@'
p116
tp117
Rp118
ag18
(g22
S'\xad<\x15\t\xf0\xb7\x11@'
p119
tp120
Rp121
ag18
(g22
S'c\xaf\x0b\xd1\xdd\xca\x11@'
p122
tp123
Rp124
ag18
(g22
S"\x1fP\n'\xb2Y\x12@"
p125
tp126
Rp127
ag18
(g22
S'@\xe5\xce\xe0\x07\r\x15@'
p128
tp129
Rp130
ag18
(g22
S'\x14\xbd<X\x83\xe6\x13@'
p131
tp132
Rp133
ag18
(g22
S'}\xa9]\x99?\xff\x14@'
p134
tp135
Rp136
ag18
(g22
S'\x8d\xdf\x9d\xfa/%\x13@'
p137
tp138
Rp139
ag18
(g22
S'\xf6\x8fn\x9dJj\x13@'
p140
tp141
Rp142
ag18
(g22
S'\x88\x02\xbdk\x8a \x14@'
p143
tp144
Rp145
ag18
(g22
S'\xa2\x17\xdaJ\x00\xcf\x11@'
p146
tp147
Rp148
ag18
(g22
S'2\xb7\xd3\xc4\x1cv\x12@'
p149
tp150
Rp151
ag18
(g22
S'\xff\xf3\xb2\x04xl\x12@'
p152
tp153
Rp154
ag18
(g22
S'Xq/\x85o\x98\x11@'
p155
tp156
Rp157
ag18
(g22
S'\x1c\x04\xe3\x06\xda\x12\x11@'
p158
tp159
Rp160
ag18
(g22
S'h\xd9G\xe8\xdb|\x13@'
p161
tp162
Rp163
ag18
(g22
S'\xc6N\xdc\x9bE\xba\x14@'
p164
tp165
Rp166
ag18
(g22
S'\xac\xd7\x1b\xeb\xc3\xe5\x12@'
p167
tp168
Rp169
ag18
(g22
S'kO\xcd~\xf8\xef\x13@'
p170
tp171
Rp172
ag18
(g22
S'R4"/\xf3\xf5\x15@'
p173
tp174
Rp175
ag18
(g22
S'\xbd\xd8\xc4c\xc9\x8c\x13@'
p176
tp177
Rp178
ag18
(g22
S'\x14\xf8;\xe5\xbe\x83\x13@'
p179
tp180
Rp181
ag18
(g22
S'\x1b\xc8\x8f]0+\x14@'
p182
tp183
Rp184
ag18
(g22
S'\xff78\x96\xca \x14@'
p185
tp186
Rp187
ag18
(g22
S',W\x90Q\x86s\x14@'
p188
tp189
Rp190
ag18
(g22
S'\t\x91\x0b\x89\xf2\xa7\x11@'
p191
tp192
Rp193
ag18
(g22
S'\xb2^"\xe2\x14D\x14@'
p194
tp195
Rp196
ag18
(g22
S'\xd1\x91\xf8\x80\x93\x1a\x14@'
p197
tp198
Rp199
ag18
(g22
S'\xa3\xdfop\x9a\xe9\x13@'
p200
tp201
Rp202
ag18
(g22
S'\n\x9b\xe3h\xc1\xd8\x12@'
p203
tp204
Rp205
ag18
(g22
S'\xc1\x97\x8e\xd2\x9d\x1c\x15@'
p206
tp207
Rp208
ag18
(g22
S'\xa8F\xe7\xfc|1\x14@'
p209
tp210
Rp211
ag18
(g22
S'\x93~2,j\xb6\x13@'
p212
tp213
Rp214
ag18
(g22
S'\xcb\x15\xecP\xc6c\x14@'
p215
tp216
Rp217
ag18
(g22
S'\x03\x97o\xcc[m\x13@'
p218
tp219
Rp220
ag18
(g22
S'<\xc3)\xcdg\x8d\x13@'
p221
tp222
Rp223
ag18
(g22
S'\xc3\xad6\x04\x8f\x15\x12@'
p224
tp225
Rp226
ag18
(g22
S'\xb8x\x84\xc0\xcb\xd5\x14@'
p227
tp228
Rp229
ag18
(g22
S'\\.7m\xb9\x1b\x14@'
p230
tp231
Rp232
ag18
(g22
S'\xde\x01\xc8\xb9\xff^\x12@'
p233
tp234
Rp235
ag18
(g22
S'L)$\xe6\t\xb1\x14@'
p236
tp237
Rp238
ag18
(g22
S'$\x87\\\xab\x1a\xca\x12@'
p239
tp240
Rp241
ag18
(g22
S'?\xe3\xae\x83\xd46\x15@'
p242
tp243
Rp244
ag18
(g22
S'\x91%\xb4\xfc\xb7\x98\x14@'
p245
tp246
Rp247
ag18
(g22
S'\xca\x91\r\x80sP\x15@'
p248
tp249
Rp250
ag18
(g22
S'\x96@\x0c\x93\x92\xe1\x13@'
p251
tp252
Rp253
ag18
(g22
S'\xc9\x8e\xc2\x18\xaa$\x14@'
p254
tp255
Rp256
ag18
(g22
S'Z\x0c\x07L\x12\x89\x12@'
p257
tp258
Rp259
ag18
(g22
S'C\x9d\xf4@\x81\x93\x11@'
p260
tp261
Rp262
ag18
(g22
S'T\xea\xd4\xfa\xd7\xd2\x13@'
p263
tp264
Rp265
ag18
(g22
S'\x8f\x10Q\x9a\x90\xaa\r@'
p266
tp267
Rp268
ag18
(g22
S'\xf737U<z\x11@'
p269
tp270
Rp271
ag18
(g22
S'\x18c\xa9\xa8\x83\x8a\x11@'
p272
tp273
Rp274
ag18
(g22
S'\n\xb8j\xee<\xc8\x11@'
p275
tp276
Rp277
ag18
(g22
S'\x9f\x15\xb2\xc3\x92\r\x14@'
p278
tp279
Rp280
ag18
(g22
S'\xdd\x06\x1b\x8d\xadN\x15@'
p281
tp282
Rp283
ag18
(g22
S'\xf3\xb6\x9f\x8b\xa7\xd6\x14@'
p284
tp285
Rp286
ag18
(g22
S'w\x1d\xa7\x19\xe7\xcb\x12@'
p287
tp288
Rp289
ag18
(g22
S'\x19]k\xd4\xf9\xcb\x12@'
p290
tp291
Rp292
ag18
(g22
S'`\xf7\x9b\xb6\x00\xed\x12@'
p293
tp294
Rp295
ag18
(g22
S'\x93`\x81\x0c\xe0Q\x14@'
p296
tp297
Rp298
ag18
(g22
S'\x14\x81\xdf\xee3\xdb\x14@'
p299
tp300
Rp301
ag18
(g22
S'\x7f/\xb6\xfb\x88T\x14@'
p302
tp303
Rp304
ag18
(g22
S'~\xe9\xb3\x99\xc0a\x13@'
p305
tp306
Rp307
ag18
(g22
S'xG\x9erB\x84\x14@'
p308
tp309
Rp310
ag18
(g22
S'jr{_-\x1e\x13@'
p311
tp312
Rp313
ag18
(g22
S'\xc3\xecVqOd\x15@'
p314
tp315
Rp316
ag18
(g22
S'\t\xe2\x8c\xdb\x8a\xf0\x12@'
p317
tp318
Rp319
ag18
(g22
S'V\xfb\xc6\x8b\x04\x82\x14@'
p320
tp321
Rp322
ag18
(g22
S',%I\xf3p{\x12@'
p323
tp324
Rp325
ag18
(g22
S'~\x86\\\xf6\x87\x19\x13@'
p326
tp327
Rp328
ag18
(g22
S'F\x1bA\xc7\xdf\xb1\x14@'
p329
tp330
Rp331
ag18
(g22
S'\x1aIko9\xff\x12@'
p332
tp333
Rp334
ag18
(g22
S'S\x96\x98\xf0,\x81\x11@'
p335
tp336
Rp337
ag18
(g22
S'\xb3$\x0c\xf9\xf9U\x15@'
p338
tp339
Rp340
ag18
(g22
S'W\x95U_\x07\xb2\x15@'
p341
tp342
Rp343
ag18
(g22
S'\xf6]\x8ePy\xe5\x14@'
p344
tp345
Rp346
ag18
(g22
S'\x122\xc8\xa6\xdez\x15@'
p347
tp348
Rp349
ag18
(g22
S'\x1a\xe1\x94\x9c\x95\x1c\x14@'
p350
tp351
Rp352
ag18
(g22
S'2\xcc\xe7\x14\x1e\xc1\x14@'
p353
tp354
Rp355
ag18
(g22
S'\xb5\xban\x16\x0b\xb6\x13@'
p356
tp357
Rp358
ag18
(g22
S'\xfb*\xdbz\xb1\xbe\x13@'
p359
tp360
Rp361
ag18
(g22
S'F"C\x92\xbf\x11\x14@'
p362
tp363
Rp364
ag18
(g22
S'\xb8\x03g\x92_D\x14@'
p365
tp366
Rp367
ag18
(g22
S'\xfau\xa6\x07A\xea\x13@'
p368
tp369
Rp370
ag18
(g22
S'\xa8-N\x8a\xfe\xbd\x13@'
p371
tp372
Rp373
ag18
(g22
S'@\x1f^yA\x8b\x13@'
p374
tp375
Rp376
ag18
(g22
S"\x0f:p>\xd7'\x11@"
p377
tp378
Rp379
ag18
(g22
S'\xd5i\xb9\xae\xa0\xb4\x13@'
p380
tp381
Rp382
ag18
(g22
S'\x8d=\xe1g\xc4&\x14@'
p383
tp384
Rp385
ag18
(g22
S'\x97\xa2\x93-H\xd7\x14@'
p386
tp387
Rp388
ag18
(g22
S'@\xbf`\x85\x968\x13@'
p389
tp390
Rp391
ag18
(g22
S'\xf6D\xd1\x0eZ\xf8\x14@'
p392
tp393
Rp394
ag18
(g22
S'\x8364q\x91i\x13@'
p395
tp396
Rp397
ag18
(g22
S'(\x10\x99r\x89\xfb\x14@'
p398
tp399
Rp400
ag18
(g22
S'\xfde6o\x13\xfa\x14@'
p401
tp402
Rp403
ag18
(g22
S'b\x8ae\xd9<?\x11@'
p404
tp405
Rp406
ag18
(g22
S'\x94/"\x96\x15U\x14@'
p407
tp408
Rp409
ag18
(g22
S'z\x0c\xf0\xd1\x16\x14\x15@'
p410
tp411
Rp412
ag18
(g22
S'\x0bA\xbe\x8f\x89i\x11@'
p413
tp414
Rp415
ag18
(g22
S'1O\xc4\xe8Y\x99\x15@'
p416
tp417
Rp418
ag18
(g22
S'T\x15\x8a\x9c\xeb\xb2\x14@'
p419
tp420
Rp421
ag18
(g22
S':\xd9\x1aUzN\x15@'
p422
tp423
Rp424
ag18
(g22
S't\x06\xd4\xa0\xee\x8f\x14@'
p425
tp426
Rp427
ag18
(g22
S'2s\xd0\xa1\x9a\xc6\x15@'
p428
tp429
Rp430
ag18
(g22
S'\x1bne.me\x16@'
p431
tp432
Rp433
ag18
(g22
S't{c`\xb1V\x13@'
p434
tp435
Rp436
ag18
(g22
S"\x9f\x11\xa3R'\x1d\x13@"
p437
tp438
Rp439
ag18
(g22
S'(Q%\xc1Qh\x14@'
p440
tp441
Rp442
ag18
(g22
S'\x97\xf3+\xaa$\x8a\x13@'
p443
tp444
Rp445
ag18
(g22
S'\x0c(M)\xadK\x15@'
p446
tp447
Rp448
ag18
(g22
S'=\xb9\xcb\xd9A#\x15@'
p449
tp450
Rp451
ag18
(g22
S'Zwos\x05\xdc\x13@'
p452
tp453
Rp454
ag18
(g22
S'\xd8\xc9S\xd2\x17\xd0\x15@'
p455
tp456
Rp457
ag18
(g22
S'\xac(\xe5\xea53\x13@'
p458
tp459
Rp460
ag18
(g22
S'\xf9\xf2\xb1\xd7\x1el\x14@'
p461
tp462
Rp463
ag18
(g22
S'\xf6\xca\x8f\xff\x04/\x15@'
p464
tp465
Rp466
ag18
(g22
S'\xc3\x87\x02\x0c5z\x13@'
p467
tp468
Rp469
ag18
(g22
S'z\xed\xcb6\x14T\x14@'
p470
tp471
Rp472
ag18
(g22
S'\n\xa9h\x96\x93i\x12@'
p473
tp474
Rp475
ag18
(g22
S'\x16\x0b\xc6Q\x07\x7f\x13@'
p476
tp477
Rp478
ag18
(g22
S"R\n\x98^'\xf9\x14@"
p479
tp480
Rp481
ag18
(g22
S'\xf3\xb8\xaag\xe50\x14@'
p482
tp483
Rp484
ag18
(g22
S'\x97lg\x918Y\x13@'
p485
tp486
Rp487
ag18
(g22
S'\x1b\x8b\xbb\x03]f\x13@'
p488
tp489
Rp490
ag18
(g22
S'\xa7\x07\x1a\x1dfM\x12@'
p491
tp492
Rp493
ag18
(g22
S'<\xda$\x93\xa2}\x15@'
p494
tp495
Rp496
ag18
(g22
S'}xz\x93es\x13@'
p497
tp498
Rp499
ag18
(g22
S'6\xa1^5Q\xe7\x13@'
p500
tp501
Rp502
ag18
(g22
S'\x14c\xd1=Y\x1b\x14@'
p503
tp504
Rp505
ag18
(g22
S'\xe3\x10\xd9\x16e\xd1\x11@'
p506
tp507
Rp508
ag18
(g22
S"c\x91'\xdd\x83\t\x15@"
p509
tp510
Rp511
ag18
(g22
S'\x9c|\x0c\xdee%\x16@'
p512
tp513
Rp514
ag18
(g22
S'\xce\xb1\x87b\x99P\x14@'
p515
tp516
Rp517
ag18
(g22
S'F\x9e|\xee\x99\xff\x11@'
p518
tp519
Rp520
ag18
(g22
S'N\xf4\xc3\x1c\x87\xa9\x14@'
p521
tp522
Rp523
ag18
(g22
S'\xa9\xf2\x00(\x88,\x15@'
p524
tp525
Rp526
ag18
(g22
S'\xaa\xeaAG\xb5\xbd\x15@'
p527
tp528
Rp529
ag18
(g22
S'\xdf\r\xbaIV;\x14@'
p530
tp531
Rp532
ag18
(g22
S'\xf4\x9e\x89F\xe9A\x14@'
p533
tp534
Rp535
ag18
(g22
S'\x16\x90\x0b5\xac\x0c\x15@'
p536
tp537
Rp538
ag18
(g22
S'\x9f\x14\x93\xc5\xbf\xd0\x14@'
p539
tp540
Rp541
ag18
(g22
S'\x89;!\x96\x08[\x13@'
p542
tp543
Rp544
ag18
(g22
S'\xdb\xf8E\xbf\xfb;\x14@'
p545
tp546
Rp547
ag18
(g22
S'\x1c\xffQ\x92\t\\\x12@'
p548
tp549
Rp550
ag18
(g22
S'\x16U\x06\xcc\xb1C\x16@'
p551
tp552
Rp553
ag18
(g22
S'sl\x97\x0b;\xb5\x15@'
p554
tp555
Rp556
ag18
(g22
S'\x1d\x11>i\x14~\x13@'
p557
tp558
Rp559
ag18
(g22
S'\xaf\xc3g\xf3\x05 \x14@'
p560
tp561
Rp562
ag18
(g22
S'C\xd3c\t\x9c%\x15@'
p563
tp564
Rp565
ag18
(g22
S'\x9f\xdb\xe0\xf2\x9b\x1e\x15@'
p566
tp567
Rp568
ag18
(g22
S'\x05\xd8\xbf\xec\xc7\x8e\x13@'
p569
tp570
Rp571
ag18
(g22
S'\xb7f \xf7\x8a\xa3\x13@'
p572
tp573
Rp574
ag18
(g22
S'\xbd\\\x93\xb7P\xce\x13@'
p575
tp576
Rp577
ag18
(g22
S'|\x9c\x0em\xdfi\x13@'
p578
tp579
Rp580
ag18
(g22
S'\r\n\xa9\xed\x18\x01\x15@'
p581
tp582
Rp583
ag18
(g22
S'\xf7I\xcb\xa8\xd3\x9a\x14@'
p584
tp585
Rp586
ag18
(g22
S'\x93\x87\xfa*g\xba\x13@'
p587
tp588
Rp589
ag18
(g22
S'p\x01\xb3\x84\x80\x89\x13@'
p590
tp591
Rp592
ag18
(g22
S'/\xb9\x98v/\xeb\x15@'
p593
tp594
Rp595
ag18
(g22
S'\xb3\x7f\x1a\x87\x81\x93\x14@'
p596
tp597
Rp598
ag18
(g22
S'\x9e\xaf$\xd8\xa0\xf7\x11@'
p599
tp600
Rp601
ag18
(g22
S'\xf0\xc0n8.~\x12@'
p602
tp603
Rp604
ag18
(g22
S'/\xea\xfe\xdc\xe4\x9f\x13@'
p605
tp606
Rp607
ag18
(g22
S'\x8f\xfa\xe0\x90ob\x13@'
p608
tp609
Rp610
ag18
(g22
S'<\xb2Tc=\xcf\x13@'
p611
tp612
Rp613
ag18
(g22
S'g\x04zkA\x0e\x13@'
p614
tp615
Rp616
ag18
(g22
S"\x0c'\x1e\xd0\x91\xc7\x13@"
p617
tp618
Rp619
ag18
(g22
S'<\x91\xc8\x14*z\x12@'
p620
tp621
Rp622
ag18
(g22
S'\xd9\x91x;o[\x14@'
p623
tp624
Rp625
ag18
(g22
S'\\+D\xa5\xdd\xd5\x14@'
p626
tp627
Rp628
ag18
(g22
S'HO\x8e0o=\x14@'
p629
tp630
Rp631
ag18
(g22
S'B\xaf\x1aQ\xc8\xfd\x13@'
p632
tp633
Rp634
ag18
(g22
S'd\xc5L.\xa2d\x14@'
p635
tp636
Rp637
ag18
(g22
S'\x12\xf6\x98\xe9g\xe8\x14@'
p638
tp639
Rp640
ag18
(g22
S'\xed\xa7v\x96rI\x14@'
p641
tp642
Rp643
ag18
(g22
S'\x00\xabavLU\x15@'
p644
tp645
Rp646
ag18
(g22
S'A\xff\xa8G\xc3l\x14@'
p647
tp648
Rp649
ag18
(g22
S'\xdc\xd8\xad\xbb\xc3\xa2\x14@'
p650
tp651
Rp652
ag18
(g22
S'\r\x9a\xfe\xf9\xf9\x9a\x12@'
p653
tp654
Rp655
ag18
(g22
S'\\\xb7\xda\x08\x96\x99\x14@'
p656
tp657
Rp658
ag18
(g22
S'I\rV?C\xea\x12@'
p659
tp660
Rp661
ag18
(g22
S'\xc4o\x085\xa7\x86\x14@'
p662
tp663
Rp664
ag18
(g22
S'\x98\xf2\xb8\xfe\xe8\\\x13@'
p665
tp666
Rp667
ag18
(g22
S'\xbf\xde)!\xab\xc6\x13@'
p668
tp669
Rp670
ag18
(g22
S'\x94\x07\xe7\xe8\xd48\x15@'
p671
tp672
Rp673
ag18
(g22
S'A4Ln_\xe8\x14@'
p674
tp675
Rp676
ag18
(g22
S'\x06\x87}\xe8\x14\x8a\x15@'
p677
tp678
Rp679
ag18
(g22
S'DF\xdd&\xf1\x8f\x14@'
p680
tp681
Rp682
ag18
(g22
S'6\xc2\xa3\x1ex\x16\x14@'
p683
tp684
Rp685
ag18
(g22
S'\xecxnDV\x14\x13@'
p686
tp687
Rp688
ag18
(g22
S'(\xc3\x80\x19\x0c\xb0\x13@'
p689
tp690
Rp691
ag18
(g22
S'3\xf7\xe4\x8c8\x98\x14@'
p692
tp693
Rp694
ag18
(g22
S'\x1c\xc3\xe0v\x16m\x15@'
p695
tp696
Rp697
ag18
(g22
S'\x99\xbc\xed\x02v\x8f\x13@'
p698
tp699
Rp700
ag18
(g22
S'_j\\]\xe7\xeb\x12@'
p701
tp702
Rp703
ag18
(g22
S'j`\xb8\xb5\xfb\xdc\x13@'
p704
tp705
Rp706
ag18
(g22
S'\xfa\xd19\xf5\x0fT\x14@'
p707
tp708
Rp709
ag18
(g22
S'@\x11\xef\xe3\x7f>\x14@'
p710
tp711
Rp712
ag18
(g22
S'/\x88M7Eo\x12@'
p713
tp714
Rp715
ag18
(g22
S'\xccq\xcf\x7f\xef#\x16@'
p716
tp717
Rp718
ag18
(g22
S'\xe8E\xc9\xba\x1a\x00\x15@'
p719
tp720
Rp721
ag18
(g22
S'\x90H\xd4\xe3W\x08\x14@'
p722
tp723
Rp724
ag18
(g22
S'\xd3fb\x99n\xaa\x13@'
p725
tp726
Rp727
ag18
(g22
S'\xacm\x07\xae"\x93\x13@'
p728
tp729
Rp730
ag18
(g22
S'\xf0E2\xedd\xd0\x13@'
p731
tp732
Rp733
ag18
(g22
S'\xe4!\xc9\xdf\xba\xb8\x13@'
p734
tp735
Rp736
ag18
(g22
S'\xa6\xd9\xe9\x0c:@\x15@'
p737
tp738
Rp739
ag18
(g22
S'\x15?h\xb2JP\x14@'
p740
tp741
Rp742
ag18
(g22
S'\x8e9\xd3\xe2\x9c\\\x15@'
p743
tp744
Rp745
ag18
(g22
S'\xe4\x88 \x04\x8aW\x15@'
p746
tp747
Rp748
ag18
(g22
S'|\xf6\xb3j\x80\x0c\x15@'
p749
tp750
Rp751
ag18
(g22
S'\xe5\xcb\x8b\xa7>W\x12@'
p752
tp753
Rp754
ag18
(g22
S'FKU|\x12\x15\x16@'
p755
tp756
Rp757
ag18
(g22
S'\x96\xe3\xd6XG\xbf\x13@'
p758
tp759
Rp760
ag18
(g22
S'\xaf\xa0\xcf,\xbd[\x14@'
p761
tp762
Rp763
asS'ts'
p764
(lp765
I60000
aI70000
aI80000
aI90000
aI100000
aI110000
aI120000
aI130000
aI140000
aI150000
aI160000
aI170000
aI180000
aI190000
aI200000
aI210000
aI220000
aI230000
aI240000
aI250000
aI260000
aI270000
aI280000
aI290000
aI300000
aI310000
aI320000
aI330000
aI340000
aI350000
aI360000
aI370000
aI380000
aI390000
aI400000
aI410000
aI420000
aI430000
aI440000
aI450000
aI460000
aI470000
aI480000
aI490000
aI500000
aI510000
aI520000
aI530000
aI540000
aI550000
aI560000
aI570000
aI580000
aI590000
aI600000
aI610000
aI620000
aI630000
aI640000
aI650000
aI660000
aI670000
aI680000
aI690000
aI700000
aI710000
aI720000
aI730000
aI740000
aI750000
aI760000
aI770000
aI780000
aI790000
aI800000
aI810000
aI820000
aI830000
aI840000
aI850000
aI860000
aI870000
aI880000
aI890000
aI900000
aI910000
aI920000
aI930000
aI940000
aI950000
aI960000
aI970000
aI980000
aI990000
aI1000000
aI1010000
aI1020000
aI1030000
aI1040000
aI1050000
aI1060000
aI1070000
aI1080000
aI1090000
aI1100000
aI1110000
aI1120000
aI1130000
aI1140000
aI1150000
aI1160000
aI1170000
aI1180000
aI1190000
aI1200000
aI1210000
aI1220000
aI1230000
aI1240000
aI1250000
aI1260000
aI1270000
aI1280000
aI1290000
aI1300000
aI1310000
aI1320000
aI1330000
aI1340000
aI1350000
aI1360000
aI1370000
aI1380000
aI1390000
aI1400000
aI1410000
aI1420000
aI1430000
aI1440000
aI1450000
aI1460000
aI1470000
aI1480000
aI1490000
aI1500000
aI1510000
aI1520000
aI1530000
aI1540000
aI1550000
aI1560000
aI1570000
aI1580000
aI1590000
aI1600000
aI1610000
aI1620000
aI1630000
aI1640000
aI1650000
aI1660000
aI1670000
aI1680000
aI1690000
aI1700000
aI1710000
aI1720000
aI1730000
aI1740000
aI1750000
aI1760000
aI1770000
aI1780000
aI1790000
aI1800000
aI1810000
aI1820000
aI1830000
aI1840000
aI1850000
aI1860000
aI1870000
aI1880000
aI1890000
aI1900000
aI1910000
aI1920000
aI1930000
aI1940000
aI1950000
aI1960000
aI1970000
aI1980000
aI1990000
aI2000000
aI2010000
aI2020000
aI2030000
aI2040000
aI2050000
aI2060000
aI2070000
aI2080000
aI2090000
aI2100000
aI2110000
aI2120000
aI2130000
aI2140000
aI2150000
aI2160000
aI2170000
aI2180000
aI2190000
aI2200000
aI2210000
aI2220000
aI2230000
aI2240000
aI2250000
aI2260000
aI2270000
aI2280000
aI2290000
aI2300000
aI2310000
aI2320000
aI2330000
aI2340000
aI2350000
aI2360000
aI2370000
aI2380000
aI2390000
aI2400000
asS'episodes'
p766
(lp767
I401
aI436
aI470
aI523
aI595
aI671
aI750
aI833
aI922
aI1014
aI1104
aI1207
aI1295
aI1397
aI1492
aI1597
aI1695
aI1772
aI1850
aI1924
aI2020
aI2080
aI2191
aI2301
aI2407
aI2524
aI2638
aI2769
aI2875
aI2960
aI3056
aI3153
aI3263
aI3363
aI3467
aI3573
aI3682
aI3766
aI3866
aI3982
aI4096
aI4207
aI4323
aI4406
aI4523
aI4633
aI4734
aI4828
aI4941
aI5068
aI5188
aI5313
aI5414
aI5538
aI5646
aI5769
aI5883
aI6000
aI6116
aI6242
aI6351
aI6474
aI6583
aI6689
aI6795
aI6908
aI7027
aI7146
aI7252
aI7367
aI7469
aI7572
aI7678
aI7793
aI7903
aI8014
aI8114
aI8218
aI8314
aI8415
aI8519
aI8625
aI8749
aI8864
aI8977
aI9104
aI9234
aI9361
aI9473
aI9572
aI9667
aI9787
aI9896
aI10004
aI10119
aI10232
aI10349
aI10467
aI10584
aI10705
aI10819
aI10926
aI11027
aI11125
aI11231
aI11345
aI11456
aI11581
aI11694
aI11795
aI11895
aI11990
aI12076
aI12181
aI12287
aI12402
aI12504
aI12616
aI12712
aI12820
aI12928
aI13036
aI13147
aI13244
aI13349
aI13454
aI13554
aI13657
aI13764
aI13873
aI13993
aI14110
aI14220
aI14321
aI14437
aI14542
aI14650
aI14758
aI14857
aI14965
aI15066
aI15171
aI15293
aI15386
aI15485
aI15592
aI15695
aI15822
aI15930
aI16052
aI16170
aI16282
aI16402
aI16516
aI16629
aI16748
aI16855
aI16962
aI17067
aI17168
aI17276
aI17362
aI17470
aI17566
aI17686
aI17794
aI17896
aI17992
aI18091
aI18208
aI18308
aI18421
aI18525
aI18628
aI18753
aI18852
aI18951
aI19063
aI19175
aI19288
aI19393
aI19493
aI19596
aI19695
aI19794
aI19891
aI19993
aI20105
aI20182
aI20289
aI20398
aI20499
aI20591
aI20679
aI20787
aI20897
aI21002
aI21116
aI21221
aI21323
aI21428
aI21542
aI21646
aI21753
aI21847
aI21951
aI22065
aI22174
aI22281
aI22362
aI22460
aI22566
aI22671
aI22765
aI22871
aI22965
aI23083
aI23193
aI23306
aI23409
aI23509
aI23600
aI23691
aI23792
aI23887
aI23999
aI24118
aI24209
aI24311
aI24424
aI24532
aI24638
aI24734
aI24832
aI24940
as.