(dp0
S'explorations'
p1
ccopy_reg
_reconstructor
p2
(cdqn_utils
PiecewiseSchedule
p3
c__builtin__
object
p4
Ntp5
Rp6
(dp7
S'_interpolation'
p8
cdqn_utils
linear_interpolation
p9
sS'_outside_value'
p10
F0.01
sS'_endpoints'
p11
(lp12
(I0
F0.2
tp13
a(F1000000.0
F0.1
tp14
a(F5000000.0
F0.01
tp15
asbsS'best_mean_rewards'
p16
(lp17
cnumpy.core.multiarray
scalar
p18
(cnumpy
dtype
p19
(S'f8'
p20
I0
I1
tp21
Rp22
(I3
S'<'
p23
NNNI-1
I-1
I0
tp24
bS'\x071}/\x05Q\x10@'
p25
tp26
Rp27
ag27
ag27
ag27
ag27
ag27
ag18
(g22
S'\xca\xee\xf1id\x89\x11@'
p28
tp29
Rp30
ag30
ag30
ag30
ag30
ag30
ag30
ag18
(g22
S'\x0e\xfbM\xe0a\x83\x13@'
p31
tp32
Rp33
ag18
(g22
S'\xd7\xb3\xd2\xef\x06\xb6\x13@'
p34
tp35
Rp36
ag36
ag36
ag36
ag36
ag36
ag36
ag18
(g22
S'\xc2o\x08\x8e=\xe2\x13@'
p37
tp38
Rp39
ag39
ag18
(g22
S'r\xc3X\xbc\x18\xe6\x15@'
p40
tp41
Rp42
ag42
ag42
ag42
ag42
ag42
ag42
ag42
ag42
ag42
ag42
ag42
asS'learning_rates'
p43
(lp44
F0.0001
aF0.0001
aF0.0001
aF0.0001
aF0.0001
aF0.0001
aF0.0001
aF0.0001
aF0.0001
aF0.0001
aF0.0001
aF0.0001
aF0.0001
aF0.0001
aF0.0001
aF0.0001
aF0.0001
aF0.0001
aF0.0001
aF0.0001
aF0.0001
aF0.0001
aF0.0001
aF0.0001
aF0.0001
aF0.0001
aF0.0001
aF0.0001
aF0.0001
aF0.0001
aF0.0001
aF0.0001
aF0.0001
aF0.0001
aF0.0001
asS'mean_rewards'
p45
(lp46
g18
(g22
S'6\xc3\xe8\x99\x08F\x08@'
p47
tp48
Rp49
ag18
(g22
S'\x81"O\x83\xa0P\x02@'
p50
tp51
Rp52
ag18
(g22
S'(1s\x80\xa1\xef\xf4?'
p53
tp54
Rp55
ag18
(g22
S'\x04\xa1\xc2\x1c\r\x1a\x01@'
p56
tp57
Rp58
ag18
(g22
S'\x86O\x04\x8c\xfeE\x0b@'
p59
tp60
Rp61
ag18
(g22
S'\x89R\xf5\xeaC@\x0e@'
p62
tp63
Rp64
ag18
(g22
S'O\xe8\xab\xdd\xac\xf3\x0f@'
p65
tp66
Rp67
ag18
(g22
S'\xe9O/<\x9d\x0c\x0c@'
p68
tp69
Rp70
ag18
(g22
S'\x8dr\xb2<\x17\x9d\x0e@'
p71
tp72
Rp73
ag18
(g22
S'\xe3B\xa3u\xd6G\x0c@'
p74
tp75
Rp76
ag18
(g22
S'\xb7+\x8fE\xe2\xc0\x0c@'
p77
tp78
Rp79
ag18
(g22
S'<h\xdf"\xcd=\r@'
p80
tp81
Rp82
ag18
(g22
S';U=\xf8w_\x0b@'
p83
tp84
Rp85
ag18
(g22
S'\xaf}\xdb\xbe<z\x13@'
p86
tp87
Rp88
ag18
(g22
S"\x9d\xd1qf\xc4'\x10@"
p89
tp90
Rp91
ag18
(g22
S'\x97/\x1f\x9e\xce\x13\x11@'
p92
tp93
Rp94
ag18
(g22
S'\xef\x9b/Y\x8a\xe2\x11@'
p95
tp96
Rp97
ag18
(g22
S'\xfa\xd0E18;\x0b@'
p98
tp99
Rp100
ag18
(g22
S'\xfdd\xfe\\\xc8w\x11@'
p101
tp102
Rp103
ag18
(g22
S'\xe33K\xe9\xaaZ\x0e@'
p104
tp105
Rp106
ag18
(g22
S'\xad<\x15\t\xf0\xb7\x11@'
p107
tp108
Rp109
ag18
(g22
S'c\xaf\x0b\xd1\xdd\xca\x11@'
p110
tp111
Rp112
ag18
(g22
S"\x1fP\n'\xb2Y\x12@"
p113
tp114
Rp115
ag18
(g22
S'@\xe5\xce\xe0\x07\r\x15@'
p116
tp117
Rp118
ag18
(g22
S'\x14\xbd<X\x83\xe6\x13@'
p119
tp120
Rp121
ag18
(g22
S'}\xa9]\x99?\xff\x14@'
p122
tp123
Rp124
ag18
(g22
S'\x8d\xdf\x9d\xfa/%\x13@'
p125
tp126
Rp127
ag18
(g22
S'\xf6\x8fn\x9dJj\x13@'
p128
tp129
Rp130
ag18
(g22
S'\x88\x02\xbdk\x8a \x14@'
p131
tp132
Rp133
ag18
(g22
S'\xa2\x17\xdaJ\x00\xcf\x11@'
p134
tp135
Rp136
ag18
(g22
S'2\xb7\xd3\xc4\x1cv\x12@'
p137
tp138
Rp139
ag18
(g22
S'\xff\xf3\xb2\x04xl\x12@'
p140
tp141
Rp142
ag18
(g22
S'Xq/\x85o\x98\x11@'
p143
tp144
Rp145
ag18
(g22
S'\x1c\x04\xe3\x06\xda\x12\x11@'
p146
tp147
Rp148
ag18
(g22
S'h\xd9G\xe8\xdb|\x13@'
p149
tp150
Rp151
asS'ts'
p152
(lp153
I60000
aI70000
aI80000
aI90000
aI100000
aI110000
aI120000
aI130000
aI140000
aI150000
aI160000
aI170000
aI180000
aI190000
aI200000
aI210000
aI220000
aI230000
aI240000
aI250000
aI260000
aI270000
aI280000
aI290000
aI300000
aI310000
aI320000
aI330000
aI340000
aI350000
aI360000
aI370000
aI380000
aI390000
aI400000
asS'episodes'
p154
(lp155
I401
aI436
aI470
aI523
aI595
aI671
aI750
aI833
aI922
aI1014
aI1104
aI1207
aI1295
aI1397
aI1492
aI1597
aI1695
aI1772
aI1850
aI1924
aI2020
aI2080
aI2191
aI2301
aI2407
aI2524
aI2638
aI2769
aI2875
aI2960
aI3056
aI3153
aI3263
aI3363
aI3467
as.