(dp0
S'explorations'
p1
ccopy_reg
_reconstructor
p2
(cdqn_utils
PiecewiseSchedule
p3
c__builtin__
object
p4
Ntp5
Rp6
(dp7
S'_interpolation'
p8
cdqn_utils
linear_interpolation
p9
sS'_outside_value'
p10
F0.01
sS'_endpoints'
p11
(lp12
(I0
F0.2
tp13
a(F1000000.0
F0.1
tp14
a(F5000000.0
F0.01
tp15
asbsS'best_mean_rewards'
p16
(lp17
cnumpy.core.multiarray
scalar
p18
(cnumpy
dtype
p19
(S'f8'
p20
I0
I1
tp21
Rp22
(I3
S'<'
p23
NNNI-1
I-1
I0
tp24
bS'\xf8\xca\xbc\xd8z\xd4\x9f?'
p25
tp26
Rp27
ag27
ag27
ag27
ag27
ag27
ag27
ag27
ag27
ag27
ag18
(g22
S'\x8d\xce\xbbp\xe92\xa4?'
p28
tp29
Rp30
ag30
ag30
ag30
ag30
ag30
ag18
(g22
S'\x1b\xd2`\x84\xb8\xd7\xa4?'
p31
tp32
Rp33
ag33
ag33
ag33
ag33
ag33
ag33
ag33
ag33
ag33
ag33
ag33
ag33
ag33
ag33
ag33
ag33
ag33
ag33
ag33
ag33
ag33
ag33
ag33
ag33
ag33
ag33
ag33
ag33
ag33
ag33
ag33
ag33
ag33
ag33
ag33
ag33
ag33
ag33
ag33
ag33
ag33
ag33
ag33
ag33
ag33
ag33
ag33
ag33
ag33
ag33
ag33
ag33
ag33
ag33
ag33
ag33
ag33
ag33
ag33
ag33
ag33
ag33
ag33
ag33
ag33
ag33
ag33
ag33
ag18
(g22
S'D9\rV\x96\x8f\xa7?'
p34
tp35
Rp36
ag36
ag36
ag36
ag36
ag36
ag18
(g22
S'\xd1\x13\xb6\x8bz2\xa8?'
p37
tp38
Rp39
ag39
ag39
ag39
ag39
ag39
ag39
ag39
ag39
ag39
ag39
ag39
ag39
ag39
ag39
ag39
ag39
ag39
ag39
ag39
ag39
ag39
ag39
ag39
ag39
ag39
ag39
ag39
ag39
ag39
ag39
ag39
ag39
ag39
ag39
ag39
ag39
ag39
ag39
ag39
ag18
(g22
S'\xbb\x0f]\x95\xady\xac?'
p40
tp41
Rp42
ag18
(g22
S'\xac\xc7@\xa78\xd8\xad?'
p43
tp44
Rp45
ag45
ag45
ag45
ag45
ag45
ag45
ag45
ag45
ag45
ag45
ag45
ag45
ag45
ag45
ag45
ag45
ag45
ag45
ag45
ag45
ag45
ag45
ag45
ag45
ag45
ag45
ag45
ag45
ag45
ag45
ag45
ag45
ag45
ag45
ag45
ag45
ag45
ag45
ag45
ag45
ag45
ag45
ag45
ag45
ag45
ag45
ag45
ag45
ag45
ag45
ag45
ag45
ag45
ag45
ag45
ag45
ag45
ag45
ag45
ag45
ag45
ag45
ag45
ag45
ag45
ag45
ag45
ag45
ag45
ag45
ag45
ag45
ag45
ag45
ag45
ag45
ag45
ag45
ag45
ag45
ag45
ag45
ag45
ag45
ag45
ag45
ag45
ag45
ag45
ag45
ag45
ag45
ag45
ag45
ag45
ag45
ag45
ag45
ag45
ag45
ag45
ag45
ag45
ag45
ag45
ag45
ag45
ag45
ag45
ag45
ag45
ag45
ag45
ag45
ag45
ag45
ag45
ag45
ag45
ag45
ag45
ag45
ag45
ag45
ag45
ag45
ag45
ag45
ag45
ag45
ag45
ag45
ag45
ag45
ag45
ag45
ag45
ag45
ag45
ag45
ag45
ag45
ag45
ag45
ag45
ag45
ag45
ag45
ag45
ag45
ag45
ag45
ag45
ag45
ag45
ag45
ag45
ag45
ag45
ag45
ag45
ag45
ag45
ag45
ag45
ag45
ag45
ag45
ag45
ag45
ag45
ag45
ag45
ag45
ag45
ag45
ag45
ag45
ag45
ag45
ag45
ag45
ag45
ag45
ag45
ag45
ag45
ag45
ag45
ag45
ag45
ag45
ag45
ag45
ag45
ag45
ag45
ag45
ag45
ag45
ag45
ag45
ag45
ag45
ag45
ag45
ag45
ag45
ag45
ag45
ag45
ag45
ag45
ag45
ag45
ag45
ag45
ag45
ag45
ag45
ag45
ag45
ag45
ag45
ag45
ag45
ag45
ag45
ag45
ag45
ag45
ag45
ag45
ag45
ag45
ag45
ag45
ag45
ag45
ag45
ag45
ag45
ag45
ag45
ag45
ag45
ag45
ag45
ag45
ag45
ag45
ag45
ag45
ag45
ag45
ag45
ag45
ag45
ag45
ag45
ag45
ag45
ag45
ag45
ag45
ag45
ag45
ag45
ag45
ag45
ag45
ag45
ag45
ag45
ag45
ag45
ag45
ag45
ag45
ag45
ag45
ag45
ag45
ag45
ag45
ag45
ag45
ag45
ag45
ag45
ag45
ag45
ag45
ag45
ag45
ag45
ag45
ag45
ag45
ag45
ag45
ag45
ag45
ag45
ag45
ag45
ag45
ag45
ag45
ag45
ag45
ag45
ag45
ag45
ag45
ag45
ag45
ag18
(g22
S'A\xd2\x87y\xb6\xae\xaf?'
p46
tp47
Rp48
ag48
ag48
ag48
ag48
ag48
ag48
ag48
ag48
ag48
ag48
ag48
ag48
ag48
ag48
ag48
ag48
ag48
ag48
ag48
ag48
ag48
ag48
ag48
ag48
ag48
ag48
ag48
ag48
ag48
ag48
ag48
ag48
ag48
ag48
ag48
ag48
ag48
ag48
ag48
ag48
ag48
ag48
ag48
ag48
asS'learning_rates'
p49
(lp50
F0.0001
aF0.0001
aF0.0001
aF0.0001
aF0.0001
aF0.0001
aF0.0001
aF0.0001
aF0.0001
aF0.0001
aF0.0001
aF0.0001
aF0.0001
aF0.0001
aF0.0001
aF0.0001
aF0.0001
aF0.0001
aF0.0001
aF0.0001
aF0.0001
aF0.0001
aF0.0001
aF0.0001
aF0.0001
aF0.0001
aF0.0001
aF0.0001
aF0.0001
aF0.0001
aF0.0001
aF0.0001
aF0.0001
aF0.0001
aF0.0001
aF0.0001
aF0.0001
aF0.0001
aF0.0001
aF0.0001
aF0.0001
aF0.0001
aF0.0001
aF0.0001
aF0.0001
aF0.0001
aF0.0001
aF0.0001
aF0.0001
aF0.0001
aF0.0001
aF0.0001
aF0.0001
aF0.0001
aF0.0001
aF0.0001
aF0.0001
aF0.0001
aF0.0001
aF0.0001
aF0.0001
aF0.0001
aF0.0001
aF0.0001
aF0.0001
aF0.0001
aF0.0001
aF0.0001
aF0.0001
aF0.0001
aF0.0001
aF0.0001
aF0.0001
aF0.0001
aF0.0001
aF0.0001
aF0.0001
aF0.0001
aF0.0001
aF0.0001
aF0.0001
aF0.0001
aF0.0001
aF0.0001
aF0.0001
aF0.0001
aF0.0001
aF0.0001
aF0.0001
aF0.0001
aF0.0001
aF0.0001
aF0.0001
aF0.0001
aF0.0001
aF9.9875e-05
aF9.975e-05
aF9.962500000000001e-05
aF9.95e-05
aF9.9375e-05
aF9.925e-05
aF9.912500000000001e-05
aF9.900000000000001e-05
aF9.8875e-05
aF9.875e-05
aF9.8625e-05
aF9.850000000000001e-05
aF9.8375e-05
aF9.825e-05
aF9.8125e-05
aF9.800000000000001e-05
aF9.787500000000001e-05
aF9.775e-05
aF9.7625e-05
aF9.75e-05
aF9.737500000000001e-05
aF9.725e-05
aF9.7125e-05
aF9.7e-05
aF9.687500000000001e-05
aF9.675000000000001e-05
aF9.6625e-05
aF9.65e-05
aF9.6375e-05
aF9.625000000000001e-05
aF9.6125e-05
aF9.6e-05
aF9.5875e-05
aF9.575000000000001e-05
aF9.562500000000001e-05
aF9.55e-05
aF9.5375e-05
aF9.525000000000001e-05
aF9.512500000000001e-05
aF9.5e-05
aF9.4875e-05
aF9.475e-05
aF9.462500000000001e-05
aF9.45e-05
aF9.4375e-05
aF9.425e-05
aF9.412500000000001e-05
aF9.400000000000001e-05
aF9.3875e-05
aF9.375e-05
aF9.3625e-05
aF9.350000000000001e-05
aF9.3375e-05
aF9.325e-05
aF9.3125e-05
aF9.300000000000001e-05
aF9.287500000000001e-05
aF9.275e-05
aF9.2625e-05
aF9.25e-05
aF9.237500000000001e-05
aF9.225e-05
aF9.2125e-05
aF9.2e-05
aF9.1875e-05
aF9.175000000000001e-05
aF9.1625e-05
aF9.15e-05
aF9.137500000000001e-05
aF9.125000000000001e-05
aF9.1125e-05
aF9.1e-05
aF9.0875e-05
aF9.075000000000001e-05
aF9.062500000000001e-05
aF9.05e-05
aF9.0375e-05
aF9.025e-05
aF9.012500000000001e-05
aF9e-05
aF8.9875e-05
aF8.975e-05
aF8.962500000000001e-05
aF8.950000000000001e-05
aF8.9375e-05
aF8.925e-05
aF8.912500000000001e-05
aF8.900000000000001e-05
aF8.8875e-05
aF8.875e-05
aF8.8625e-05
aF8.850000000000001e-05
aF8.837500000000001e-05
aF8.825e-05
aF8.8125e-05
aF8.8e-05
aF8.787500000000001e-05
aF8.775e-05
aF8.7625e-05
aF8.75e-05
aF8.737500000000001e-05
aF8.725e-05
aF8.7125e-05
aF8.7e-05
aF8.687500000000001e-05
aF8.675000000000001e-05
aF8.6625e-05
aF8.65e-05
aF8.6375e-05
aF8.625000000000001e-05
aF8.6125e-05
aF8.6e-05
aF8.5875e-05
aF8.575000000000001e-05
aF8.562500000000001e-05
aF8.55e-05
aF8.5375e-05
aF8.525000000000001e-05
aF8.512500000000001e-05
aF8.5e-05
aF8.4875e-05
aF8.475e-05
aF8.462500000000001e-05
aF8.450000000000001e-05
aF8.4375e-05
aF8.425e-05
aF8.4125e-05
aF8.400000000000001e-05
aF8.3875e-05
aF8.375e-05
aF8.3625e-05
aF8.35e-05
aF8.337500000000001e-05
aF8.325e-05
aF8.3125e-05
aF8.3e-05
aF8.2875e-05
aF8.275e-05
aF8.2625e-05
aF8.25e-05
aF8.237500000000001e-05
aF8.225000000000001e-05
aF8.2125e-05
aF8.2e-05
aF8.1875e-05
aF8.175000000000001e-05
aF8.1625e-05
aF8.15e-05
aF8.1375e-05
aF8.125e-05
aF8.112500000000001e-05
aF8.1e-05
aF8.0875e-05
aF8.075000000000001e-05
aF8.062500000000001e-05
aF8.05e-05
aF8.0375e-05
aF8.025e-05
aF8.012500000000001e-05
aF8e-05
aF7.9875e-05
aF7.975e-05
aF7.9625e-05
aF7.950000000000001e-05
aF7.9375e-05
aF7.925e-05
aF7.912500000000001e-05
aF7.900000000000001e-05
aF7.8875e-05
aF7.875e-05
aF7.8625e-05
aF7.850000000000001e-05
aF7.837500000000001e-05
aF7.825e-05
aF7.8125e-05
aF7.8e-05
aF7.787500000000001e-05
aF7.775e-05
aF7.7625e-05
aF7.75e-05
aF7.7375e-05
aF7.725000000000001e-05
aF7.7125e-05
aF7.7e-05
aF7.6875e-05
aF7.675e-05
aF7.6625e-05
aF7.65e-05
aF7.6375e-05
aF7.625000000000001e-05
aF7.612500000000001e-05
aF7.6e-05
aF7.5875e-05
aF7.575e-05
aF7.562500000000001e-05
aF7.55e-05
aF7.5375e-05
aF7.525e-05
aF7.5125e-05
aF7.500000000000001e-05
aF7.4875e-05
aF7.475e-05
aF7.462500000000001e-05
aF7.45e-05
aF7.4375e-05
aF7.425e-05
aF7.4125e-05
aF7.400000000000001e-05
aF7.3875e-05
aF7.375e-05
aF7.3625e-05
aF7.35e-05
aF7.337500000000001e-05
aF7.325e-05
aF7.3125e-05
aF7.3e-05
aF7.2875e-05
aF7.275e-05
aF7.2625e-05
aF7.25e-05
aF7.237500000000001e-05
aF7.225e-05
aF7.2125e-05
aF7.2e-05
aF7.1875e-05
aF7.175000000000001e-05
aF7.1625e-05
aF7.15e-05
aF7.1375e-05
aF7.125000000000001e-05
aF7.112500000000001e-05
aF7.1e-05
aF7.0875e-05
aF7.075000000000001e-05
aF7.0625e-05
aF7.05e-05
aF7.0375e-05
aF7.025e-05
aF7.0125e-05
aF7.000000000000001e-05
aF6.9875e-05
aF6.975e-05
aF6.9625e-05
aF6.950000000000001e-05
aF6.937499999999999e-05
aF6.925e-05
aF6.9125e-05
aF6.9e-05
aF6.887500000000001e-05
aF6.875e-05
aF6.8625e-05
aF6.850000000000001e-05
aF6.837500000000001e-05
aF6.825e-05
aF6.8125e-05
aF6.8e-05
aF6.787500000000001e-05
aF6.775e-05
aF6.7625e-05
aF6.75e-05
aF6.7375e-05
aF6.725000000000001e-05
aF6.7125e-05
aF6.7e-05
aF6.687500000000001e-05
aF6.675e-05
aF6.6625e-05
aF6.65e-05
aF6.6375e-05
aF6.625e-05
aF6.6125e-05
aF6.6e-05
aF6.5875e-05
aF6.575e-05
aF6.562500000000001e-05
aF6.55e-05
aF6.5375e-05
aF6.525000000000001e-05
aF6.5125e-05
aF6.500000000000001e-05
aF6.4875e-05
aF6.475e-05
aF6.462500000000001e-05
aF6.45e-05
aF6.4375e-05
aF6.425e-05
aF6.4125e-05
aF6.400000000000001e-05
aF6.3875e-05
aF6.375e-05
aF6.3625e-05
aF6.35e-05
aF6.337500000000001e-05
aF6.325e-05
aF6.3125e-05
aF6.300000000000001e-05
aF6.2875e-05
aF6.275000000000001e-05
aF6.262499999999999e-05
aF6.25e-05
aF6.237500000000001e-05
aF6.225e-05
aF6.2125e-05
aF6.2e-05
aF6.1875e-05
aF6.175000000000001e-05
aF6.162500000000001e-05
aF6.15e-05
aF6.137500000000001e-05
aF6.125e-05
aF6.112500000000001e-05
aF6.1e-05
aF6.0875e-05
aF6.075e-05
aF6.0625e-05
aF6.05e-05
aF6.0375000000000004e-05
aF6.025e-05
aF6.0125000000000005e-05
aF6e-05
aF5.9875000000000005e-05
aF5.975e-05
aF5.9625000000000006e-05
aF5.95e-05
aF5.9375e-05
aF5.9250000000000004e-05
aF5.9125e-05
aF5.9000000000000004e-05
aF5.8875e-05
aF5.8750000000000005e-05
aF5.8625e-05
aF5.8500000000000006e-05
aF5.8375e-05
aF5.8250000000000006e-05
aF5.8125e-05
aF5.800000000000001e-05
aF5.7875000000000004e-05
aF5.775e-05
aF5.7625e-05
aF5.75e-05
aF5.7375e-05
aF5.725e-05
aF5.7125e-05
aF5.7e-05
aF5.6875e-05
aF5.6750000000000004e-05
aF5.6625e-05
aF5.6500000000000005e-05
aF5.6375e-05
aF5.6250000000000005e-05
aF5.6125e-05
aF5.6e-05
aF5.5875e-05
aF5.575e-05
aF5.5625000000000004e-05
aF5.55e-05
aF5.5375000000000004e-05
aF5.525e-05
aF5.5125000000000005e-05
aF5.5e-05
aF5.4875000000000006e-05
aF5.475e-05
aF5.4625000000000006e-05
aF5.45e-05
aF5.437500000000001e-05
aF5.4250000000000004e-05
aF5.4125e-05
aF5.4e-05
aF5.3875e-05
aF5.375e-05
aF5.3625e-05
aF5.35e-05
aF5.3375e-05
aF5.325e-05
aF5.3125000000000004e-05
aF5.300000000000001e-05
aF5.2875000000000005e-05
aF5.275000000000001e-05
aF5.2625000000000005e-05
aF5.25e-05
aF5.2375e-05
aF5.225e-05
aF5.2125e-05
aF5.2000000000000004e-05
aF5.1875e-05
aF5.1750000000000004e-05
aF5.1625e-05
aF5.1500000000000005e-05
aF5.1375e-05
aF5.1250000000000006e-05
aF5.1125e-05
aF5.1000000000000006e-05
aF5.0875e-05
aF5.075e-05
aF5.0625e-05
aF5.05e-05
aF5.0375e-05
aF5.025e-05
aF5.0125e-05
aF5e-05
asS'mean_rewards'
p51
(lp52
g18
(g22
S'\xfc\x8d\x86\x8a\xbb1\x90?'
p53
tp54
Rp55
ag18
(g22
S'\x9fs\xbe\xa2\xa47k?'
p56
tp57
Rp58
ag18
(g22
S'\xd4W*\x04\xe3\x94t?'
p59
tp60
Rp61
ag18
(g22
S'WI\xaf\xa1\xd4\xd6\x91?'
p62
tp63
Rp64
ag18
(g22
S'S\xf2Y\x975\x8av?'
p65
tp66
Rp67
ag18
(g22
S'\x9aP\x83\xfa%b\x92?'
p68
tp69
Rp70
ag18
(g22
S'\xdd\xb2\x94\x95\xfd\xd3t\xbf'
p71
tp72
Rp73
ag18
(g22
S'\xd7\x17\x9f\xeb\xf2\x99_\xbf'
p74
tp75
Rp76
ag18
(g22
S'\xcd\xac=\r\xff\xc7!\xbf'
p77
tp78
Rp79
ag18
(g22
S'\xcc\xf6E\xf7M\xe0a?'
p80
tp81
Rp82
ag18
(g22
S'\x12\xc4\x92\xe2\xf1\r\x9f?'
p83
tp84
Rp85
ag18
(g22
S'\r\xc8\xb4\xd9\xdfF~?'
p86
tp87
Rp88
ag18
(g22
S'\\\x1e\xd8\xcb-\xa5\x97?'
p89
tp90
Rp91
ag18
(g22
S'\xac\x01\x91\xa8\x02\xf3x?'
p92
tp93
Rp94
ag18
(g22
S'\xf4"[dB\xcdp?'
p95
tp96
Rp97
ag18
(g22
S'\x04)\x8d\xfeS&o\xbf'
p98
tp99
Rp100
ag18
(g22
S's\x10\x05C9\x08\x9e?'
p101
tp102
Rp103
ag18
(g22
S'\\\xbe\x8d\x9d\x00\xf5_\xbf'
p104
tp105
Rp106
ag18
(g22
S'\xad\x1a;4\x139v\xbf'
p107
tp108
Rp109
ag18
(g22
S'\xd6\xa0\xcb\x03\x17I\x88?'
p110
tp111
Rp112
ag18
(g22
S'\xe0\x98]!D\\\x9b?'
p113
tp114
Rp115
ag18
(g22
S'\xbd\x15\xfdS\xf7\xd7\x95?'
p116
tp117
Rp118
ag18
(g22
S'C\x94\xa1\xd2\nj\x80?'
p119
tp120
Rp121
ag18
(g22
S'\xd7]\xf8\x89Ig\x8f?'
p122
tp123
Rp124
ag18
(g22
S'qSJ\xf2\xeb\x811\xbf'
p125
tp126
Rp127
ag18
(g22
S'!\xf0VX\xeesb\xbf'
p128
tp129
Rp130
ag18
(g22
S'w\xcf\x9c\xe3\xe7\x84\x83?'
p131
tp132
Rp133
ag18
(g22
S'\x92\xa2.\xf0\xdd=\x86?'
p134
tp135
Rp136
ag18
(g22
S'\xb2\xbe^\xb1`"z?'
p137
tp138
Rp139
ag18
(g22
S'\xb7Z\xcf\xc5=\xc7`\xbf'
p140
tp141
Rp142
ag18
(g22
S'\xc8\xcc\x86\xb3t:\x89?'
p143
tp144
Rp145
ag18
(g22
S'\xc8O\xc8\xc0\x8d;s?'
p146
tp147
Rp148
ag18
(g22
S'\xd6\x80\x13\xb8\xf7\xa9\x7f?'
p149
tp150
Rp151
ag18
(g22
S'(\xaf\x8a\xfe\xb5\x1ep\xbf'
p152
tp153
Rp154
ag18
(g22
S'z\x0c\xc8\x98i\xb8}?'
p155
tp156
Rp157
ag18
(g22
S'\ty`\xcc\t\xc8|?'
p158
tp159
Rp160
ag18
(g22
S'\xe1~\xc6\tOd\x86?'
p161
tp162
Rp163
ag18
(g22
S'E\xf6v\xf9\xf7\x08h\xbf'
p164
tp165
Rp166
ag18
(g22
S'\xe3\xcc\xe0\x06\x10\xb5\x82?'
p167
tp168
Rp169
ag18
(g22
S'nF\x19\xa4\x0e\x98\x8a?'
p170
tp171
Rp172
ag18
(g22
S'\x9c}\x80H{A\x88?'
p173
tp174
Rp175
ag18
(g22
S'\xb6\x12\xb2f\xb5|\x7f?'
p176
tp177
Rp178
ag18
(g22
S'\xa3\xe0\x13b\xb4\x19l\xbf'
p179
tp180
Rp181
ag18
(g22
S'\xb2A\x13M\x92\x97\x8b?'
p182
tp183
Rp184
ag18
(g22
S'H/V\xde\xdd\xf1\x82?'
p185
tp186
Rp187
ag18
(g22
S'\xb2\x17y\x88\x82/i\xbf'
p188
tp189
Rp190
ag18
(g22
S'\x8f\x1c\xa7\x08J\xa4P\xbf'
p191
tp192
Rp193
ag18
(g22
S'\x859\xa8_\x90\x1e\x8f?'
p194
tp195
Rp196
ag18
(g22
S'wxI\xd7s\xdc\x96?'
p197
tp198
Rp199
ag18
(g22
S'x\x1f]m\xc3\xb4v?'
p200
tp201
Rp202
ag18
(g22
S'\x8e\xf0}\xe7\xbc<u?'
p203
tp204
Rp205
ag18
(g22
S'\x8d\x8f(o\x81\xa2w?'
p206
tp207
Rp208
ag18
(g22
S'\x14\x17\xfa\x9d?\xea#?'
p209
tp210
Rp211
ag18
(g22
S'\xa9Z\x18\x14\xdb*$\xbf'
p212
tp213
Rp214
ag18
(g22
S'\xc6\xeb\xc3{A\x03\x9f?'
p215
tp216
Rp217
ag18
(g22
S'E\x92\x9f\xbdN\x8c\x8a?'
p218
tp219
Rp220
ag18
(g22
S'\x8c\xe7\xb8\xf6\x88\xf3w?'
p221
tp222
Rp223
ag18
(g22
S'\n\x17\xb3\x82\xb2\xfei\xbf'
p224
tp225
Rp226
ag18
(g22
S'\xda\x87\x11Gx\x95}?'
p227
tp228
Rp229
ag18
(g22
S'A\x19\xff\x06\x17C\x94?'
p230
tp231
Rp232
ag18
(g22
S'Xn\xfe\xf6\xcc\x87r?'
p233
tp234
Rp235
ag18
(g22
S'\xf8\xb2\x93\xf3\xed\xa4\x88?'
p236
tp237
Rp238
ag18
(g22
S'2\xe8\xbc\xc9\xa3Z\x8a?'
p239
tp240
Rp241
ag18
(g22
S'\xda\x9bqa\x94+\x90?'
p242
tp243
Rp244
ag18
(g22
S'\x00\xac\xfe\xb3~\xc1\x96?'
p245
tp246
Rp247
ag18
(g22
S'\x13*a\xc2GN\x8b?'
p248
tp249
Rp250
ag18
(g22
S'=f$^Dio?'
p251
tp252
Rp253
ag18
(g22
S'\x96Aq\x90\x1c\xe4`\xbf'
p254
tp255
Rp256
ag18
(g22
S'\x1fB\xa02\x9e\x14e\xbf'
p257
tp258
Rp259
ag18
(g22
S'mV\xb9V5A\x96?'
p260
tp261
Rp262
ag18
(g22
S'\x9b\xe8H\xe3:CO?'
p263
tp264
Rp265
ag18
(g22
S'\x16\xcc \rB\x92\x91?'
p266
tp267
Rp268
ag18
(g22
S'\x8f\x8a\x81v?h\x8c?'
p269
tp270
Rp271
ag18
(g22
S'\x05\x89B8\xde\x98\x85?'
p272
tp273
Rp274
ag18
(g22
S'\x1a\xc4\x00\x85\xf8%c?'
p275
tp276
Rp277
ag18
(g22
S'\x08\xedE>4Cc\xbf'
p278
tp279
Rp280
ag18
(g22
S'\xe9\xf1\x17B"hy?'
p281
tp282
Rp283
ag18
(g22
S'\xb7\xb3\xc9\xf4\xa5$\x88?'
p284
tp285
Rp286
ag18
(g22
S'Mx\xe8\x07\x00\xb7w?'
p287
tp288
Rp289
ag18
(g22
S'\x0e\xa4\x81\xc5\x968\x81?'
p290
tp291
Rp292
ag18
(g22
S'\x9a\xc4\x8f\x04\xcc\xc46\xbf'
p293
tp294
Rp295
ag18
(g22
S"\x9c\xe9MV\xc8'm?"
p296
tp297
Rp298
ag18
(g22
S'\x16!8\xe8\xe0\x1e\x8a?'
p299
tp300
Rp301
ag18
(g22
S'\xa1t\x90\xf5\xe8\xf7\x92?'
p302
tp303
Rp304
ag18
(g22
S'\xae\xfaLZ#\n\x94?'
p305
tp306
Rp307
ag18
(g22
S'\\=\x04U\xe9\xda\xa3?'
p308
tp309
Rp310
ag18
(g22
S'R\xf4\xda\xd0:\x12\x8c?'
p311
tp312
Rp313
ag18
(g22
S'\xc8\xc2/\x80\xec\xeeH?'
p314
tp315
Rp316
ag18
(g22
S'\x00\xf3>\xfb3\xbf\x9c?'
p317
tp318
Rp319
ag18
(g22
S'\x13\xb9{\xcaC\x97d\xbf'
p320
tp321
Rp322
ag18
(g22
S'\xb3Do}\x02\xd7\x9f?'
p323
tp324
Rp325
ag18
(g22
S'\xe1\x87\xd5\x01\xd1\x93\x9a?'
p326
tp327
Rp328
ag18
(g22
S'\x909\x8b\xe4v\xfbP\xbf'
p329
tp330
Rp331
ag18
(g22
S'=\x0c\xda\x07\xa3\x8eX\xbf'
p332
tp333
Rp334
ag18
(g22
S'|p$\xfb\xd6\x90\x8d?'
p335
tp336
Rp337
ag18
(g22
S'\x84\xe5f\xfa\x83\xb9a?'
p338
tp339
Rp340
ag18
(g22
S'\xe5w\xa1+\xec\x8fk?'
p341
tp342
Rp343
ag18
(g22
S'\x88 -\xdd^f\x91?'
p344
tp345
Rp346
ag18
(g22
S'\xac:C\xd4o \x96?'
p347
tp348
Rp349
ag18
(g22
S'XM\x87\xaalxt\xbf'
p350
tp351
Rp352
ag18
(g22
S'\xd7/\xf6\xe6\xb96\x9e?'
p353
tp354
Rp355
ag18
(g22
S'\xbe\xaf)\xdc\x9eBb\xbf'
p356
tp357
Rp358
ag18
(g22
S'\xdf,M\x8d\xd7\x12\x8d?'
p359
tp360
Rp361
ag18
(g22
S'\xd2\x81\x17\x107m\x80?'
p362
tp363
Rp364
ag18
(g22
S'\x83\xa0lFy\xf9\x7f?'
p365
tp366
Rp367
ag18
(g22
S'M\x993\xcb\x15ve\xbf'
p368
tp369
Rp370
ag18
(g22
S']\xcc\x05a\xe5M^\xbf'
p371
tp372
Rp373
ag18
(g22
S'\x1f\xf2\xd7\x0cz\x15\x94?'
p374
tp375
Rp376
ag18
(g22
S'A\xa8\xb1\xc83\xe2Y?'
p377
tp378
Rp379
ag18
(g22
S'\xcacP\x9e+z\x86?'
p380
tp381
Rp382
ag18
(g22
S'/\x99b\xc8X\x90\x80?'
p383
tp384
Rp385
ag18
(g22
S'!\xd6\r\x1f\r\xc2e?'
p386
tp387
Rp388
ag18
(g22
S'\x83\xbc9\xb1~\xb2\x81\xbf'
p389
tp390
Rp391
ag18
(g22
S'\xfb\x98\xb4\x05\xc1\x82\x9a?'
p392
tp393
Rp394
ag18
(g22
S'\x0c\xa0|#H\x96\x86?'
p395
tp396
Rp397
ag18
(g22
S'v\xaf\xc26\x0b\xf8\x8d?'
p398
tp399
Rp400
ag18
(g22
S'\x85[k\xca\x85D\x91?'
p401
tp402
Rp403
ag18
(g22
S'\xa7\xa4yN\x08\xf7\x83?'
p404
tp405
Rp406
ag18
(g22
S'\xee>\xc4\x87\xccy{?'
p407
tp408
Rp409
ag18
(g22
S"\x8d\xaa0'\xfev\x91?"
p410
tp411
Rp412
ag18
(g22
S'H\xe5\x97h[\xa1>?'
p413
tp414
Rp415
ag18
(g22
S'\xec\xd6\x07\x95\xfb\\O?'
p416
tp417
Rp418
ag18
(g22
S'\xec\x12\n\xe2\x93\x00m?'
p419
tp420
Rp421
ag18
(g22
S'\xda\x1d\x98\xfe#WY\xbf'
p422
tp423
Rp424
ag18
(g22
S'\xfdf\x9d\x1e\x1e\x0c\x9a?'
p425
tp426
Rp427
ag18
(g22
S'8\xaa\x12S\xd5\xed\x93?'
p428
tp429
Rp430
ag18
(g22
S'(\xdb\xd1\n\x1e\x8bz?'
p431
tp432
Rp433
ag18
(g22
S';\x83\xd3\n]\xe4\x89?'
p434
tp435
Rp436
ag18
(g22
S'%\xad\xc6\xfcS)\x8f?'
p437
tp438
Rp439
ag18
(g22
S'\x1f.\x0cB\xf6\x96y?'
p440
tp441
Rp442
ag18
(g22
S'\xbbd&v\x87\xab\x97?'
p443
tp444
Rp445
ag18
(g22
S'\x94j\xb8\x10\xc5\xac\x9f?'
p446
tp447
Rp448
ag18
(g22
S'\xea\x02\xed\x82\x05\x81\xab?'
p449
tp450
Rp451
ag18
(g22
S'\x94\xf8\x0f%tp~?'
p452
tp453
Rp454
ag18
(g22
S'LN\xdfz\t\x1d\x91?'
p455
tp456
Rp457
ag18
(g22
S'\xb1\xab\xd0\xda[\x1bl\xbf'
p458
tp459
Rp460
ag18
(g22
S':\x86}*\x8f\x1b\x85?'
p461
tp462
Rp463
ag18
(g22
S'\xd8_\x10o\xe1\x07\x99?'
p464
tp465
Rp466
ag18
(g22
S'\xeb\x1a\r\x0c\xac\x9a\x81?'
p467
tp468
Rp469
ag18
(g22
S'\x1f\x94\x99Gt\xa0\x82?'
p470
tp471
Rp472
ag18
(g22
S'C\xdf\x93\xf2\x8d\xf1w\xbf'
p473
tp474
Rp475
ag18
(g22
S'Q\x08\x18\x8a\xbd\x9er?'
p476
tp477
Rp478
ag18
(g22
S'\xb7\xd1\xc5b-\xec\x82?'
p479
tp480
Rp481
ag18
(g22
S'OG\xadE\x065\x92?'
p482
tp483
Rp484
ag18
(g22
S'\xc1&\xcf\\d%\x8e?'
p485
tp486
Rp487
ag18
(g22
S'\x94\xa9\x1c\x90\xb3Y\x9c?'
p488
tp489
Rp490
ag18
(g22
S'\xc1\x10\xbe\x81\x9a\x1ew?'
p491
tp492
Rp493
ag18
(g22
S'\x84\x01\x90\xcc\xe5\xc6c\xbf'
p494
tp495
Rp496
ag18
(g22
S'x\xd4\xe4\x13\xdc\xaf\x8c?'
p497
tp498
Rp499
ag18
(g22
S'\xc5\xa9\x12\x99M\xcc\x84?'
p500
tp501
Rp502
ag18
(g22
S'1\x02\x9f1\xca3\x8a?'
p503
tp504
Rp505
ag18
(g22
S',\x93;\xb24\x1co\xbf'
p506
tp507
Rp508
ag18
(g22
S'\xf7(\x9c\xa5\x13\x12\x8d?'
p509
tp510
Rp511
ag18
(g22
S',!\xd3/9\xfb\x81?'
p512
tp513
Rp514
ag18
(g22
S'NLh5h\x12\x81?'
p515
tp516
Rp517
ag18
(g22
S'\x9aK\xf6\xba\xe2x\\\xbf'
p518
tp519
Rp520
ag18
(g22
S'\xfd\xe0!\xcan\x95q?'
p521
tp522
Rp523
ag18
(g22
S'\x08\xee\x01u\xae\xee\x97?'
p524
tp525
Rp526
ag18
(g22
S'C.\xbcQ\xa8\xddo?'
p527
tp528
Rp529
ag18
(g22
S'\xe36\xdf[e\x95\x87?'
p530
tp531
Rp532
ag18
(g22
S'\xf1\xb0\x99\xd9\xe6\x97\x9b?'
p533
tp534
Rp535
ag18
(g22
S':p\xd5\xae\xea\r\x9b?'
p536
tp537
Rp538
ag18
(g22
S'v4\xc5\x97M\x8d^?'
p539
tp540
Rp541
ag18
(g22
S'\xed1\x16t+\xd2s\xbf'
p542
tp543
Rp544
ag18
(g22
S'\xe1J\xbe8q\xa3j?'
p545
tp546
Rp547
ag18
(g22
S'`\x12pH\xac\x9c\x89?'
p548
tp549
Rp550
ag18
(g22
S'8\xe9\x8dl$}W\xbf'
p551
tp552
Rp553
ag18
(g22
S'\x80\xd13\xab\xb9gr\xbf'
p554
tp555
Rp556
ag18
(g22
S'\t\xf5&\xfa\xcf^f\xbf'
p557
tp558
Rp559
ag18
(g22
S'\x1508\xac\x1fy\x92?'
p560
tp561
Rp562
ag18
(g22
S'a\x80\xf0\xcc\x7f r\xbf'
p563
tp564
Rp565
ag18
(g22
S'\x05\x1c\x1dkkN]\xbf'
p566
tp567
Rp568
ag18
(g22
S'K\x86\xe0;\xc7\xf3\xa2?'
p569
tp570
Rp571
ag18
(g22
S'\x91d\x11\x9d\x00\x15d\xbf'
p572
tp573
Rp574
ag18
(g22
S'=D\\\xce\x8a\xa6I?'
p575
tp576
Rp577
ag18
(g22
S'\x85\xfb(`nq\x8c?'
p578
tp579
Rp580
ag18
(g22
S'\xcc\x88Zi\x9ci\x99?'
p581
tp582
Rp583
ag18
(g22
S'6n\xba\xf1 8u?'
p584
tp585
Rp586
ag18
(g22
S'C|:\xad\x99gq\xbf'
p587
tp588
Rp589
ag18
(g22
S'\x05\x9b1C\x0f)\x98?'
p590
tp591
Rp592
ag18
(g22
S'IR\xfdWN\xdc\x7f?'
p593
tp594
Rp595
ag18
(g22
S'\xc0D#\x808?\x81\xbf'
p596
tp597
Rp598
ag18
(g22
S'lb\xee\x91o\x8ex?'
p599
tp600
Rp601
ag18
(g22
S'\x8c\xa0x04\xddq?'
p602
tp603
Rp604
ag18
(g22
S'\xaa\xe1J\xe3\xe5=g\xbf'
p605
tp606
Rp607
ag18
(g22
S'!\x194,\xc9\x18]\xbf'
p608
tp609
Rp610
ag18
(g22
S'Z\xee+\xad\x96C\x9a?'
p611
tp612
Rp613
ag18
(g22
S'\x1c\xd81b\xa0\xabK\xbf'
p614
tp615
Rp616
ag18
(g22
S'\xda.\x05n\xb97\x8b?'
p617
tp618
Rp619
ag18
(g22
S"8\x00\xd7\r\xd2'v?"
p620
tp621
Rp622
ag18
(g22
S"\xba\xb1\xd0\x96C'~?"
p623
tp624
Rp625
ag18
(g22
S'\xd2Fb#\xced\x86\xbf'
p626
tp627
Rp628
ag18
(g22
S'{\xc38\xe3\xb0\x97f?'
p629
tp630
Rp631
ag18
(g22
S'x\x8a\xfb\x98L\x99s?'
p632
tp633
Rp634
ag18
(g22
S'\xc4\x85\xa5\xe8\xeb\xd6\x99?'
p635
tp636
Rp637
ag18
(g22
S'[\xc7"\x17Bxa\xbf'
p638
tp639
Rp640
ag18
(g22
S'\x9d\xe5\xa6\xd7._\x97?'
p641
tp642
Rp643
ag18
(g22
S'\x8fv\xdfj\xbd\xb9X?'
p644
tp645
Rp646
ag18
(g22
S'@\xf4h\xacM\xeey?'
p647
tp648
Rp649
ag18
(g22
S'.\x90\x9b\x98\x1a\x15o\xbf'
p650
tp651
Rp652
ag18
(g22
S'\xdd\xd7?\x1ddm\x81?'
p653
tp654
Rp655
ag18
(g22
S'\xcej\x19|,\ti?'
p656
tp657
Rp658
ag18
(g22
S'\xda\xba\xc86\x9b\xd8v?'
p659
tp660
Rp661
ag18
(g22
S'\xc3\xac\xd1s\xee\xbcq?'
p662
tp663
Rp664
ag18
(g22
S'{\xf4\xcam\xfe\x80U?'
p665
tp666
Rp667
ag18
(g22
S'F\x19\x8b\x1a\x83\xb8p\xbf'
p668
tp669
Rp670
ag18
(g22
S'\x8f\x1a\x19\xfc1\x0b(?'
p671
tp672
Rp673
ag18
(g22
S'\xc8\x17\x85\xa2\xea\x05Y?'
p674
tp675
Rp676
ag18
(g22
S'\xc3\xc83\x833\x9b<?'
p677
tp678
Rp679
ag18
(g22
S'\xb1X\x03\xdc\xbf\xb4\x7f\xbf'
p680
tp681
Rp682
ag18
(g22
S'\xb1\xd5\xecDK\x0f\x89?'
p683
tp684
Rp685
ag18
(g22
S'\x1a\xb8\xd6\x95\xef\xca\x92?'
p686
tp687
Rp688
ag18
(g22
S'\xc0\x0c2\x84h\xbeE?'
p689
tp690
Rp691
ag18
(g22
S' \xaf\x9d\xd7\xb7\xddP\xbf'
p692
tp693
Rp694
ag18
(g22
S'\xae+\xe5\xac_$y?'
p695
tp696
Rp697
ag18
(g22
S")L\xf1H\x1e.'?"
p698
tp699
Rp700
ag18
(g22
S'8\r\x0c\x08\xb8#\x95?'
p701
tp702
Rp703
ag18
(g22
S'\xcd\x98\xb8\xb4\x10\xf5+\xbf'
p704
tp705
Rp706
ag18
(g22
S'\xbc\xa4\x8eg\x8f\xea\x89?'
p707
tp708
Rp709
ag18
(g22
S',\x95\xe1-t[u\xbf'
p710
tp711
Rp712
ag18
(g22
S'\xd4\x90R\x8f\x90\x8d`?'
p713
tp714
Rp715
ag18
(g22
S'RTt\xc9\xd59m\xbf'
p716
tp717
Rp718
ag18
(g22
S'\\\xb3y^s\xdd\x9a?'
p719
tp720
Rp721
ag18
(g22
S'\x85\xd0\x88P\xc06S?'
p722
tp723
Rp724
ag18
(g22
S'\xdf\xa0\xc0\xbf\xc4\xf4}?'
p725
tp726
Rp727
ag18
(g22
S'\xbb{\x8d\xb0\x90\xb6d?'
p728
tp729
Rp730
ag18
(g22
S'\r\xe8\xff\xe6\x1d\x84\x95?'
p731
tp732
Rp733
ag18
(g22
S'\xd2\x11w[\xc3W\x8c?'
p734
tp735
Rp736
ag18
(g22
S'&\x82P\xd76Nb?'
p737
tp738
Rp739
ag18
(g22
S'{\x92\xafU\x07]r\xbf'
p740
tp741
Rp742
ag18
(g22
S'\xfd>\x82\xc3\xd6\xbfp?'
p743
tp744
Rp745
ag18
(g22
S'\xa9Q\x96\xb8i\xc8d?'
p746
tp747
Rp748
ag18
(g22
S'!(\x1dn\xfa\x91i?'
p749
tp750
Rp751
ag18
(g22
S'n\xbd\xfaZ:\xb6\x8d?'
p752
tp753
Rp754
ag18
(g22
S'<\xaaj\xaa\xcd\x85\x86?'
p755
tp756
Rp757
ag18
(g22
S'\x8aY\x17?\x19~n?'
p758
tp759
Rp760
ag18
(g22
S'\x17%S\xc8\xb6YZ?'
p761
tp762
Rp763
ag18
(g22
S'X`O\xc6\xd6#r\xbf'
p764
tp765
Rp766
ag18
(g22
S'\x9e\xf8\xcdd\xd3\xfdp?'
p767
tp768
Rp769
ag18
(g22
S'\xae+\xcars\x9f\x99?'
p770
tp771
Rp772
ag18
(g22
S'\x92\xf5!8hy\x8b?'
p773
tp774
Rp775
ag18
(g22
S'\xfc\xad\xef\xfe\xd0Ur\xbf'
p776
tp777
Rp778
ag18
(g22
S'\xdf8\x15\xb6\xa5\xcet?'
p779
tp780
Rp781
ag18
(g22
S'i\x04\xf3c\x0c{H\xbf'
p782
tp783
Rp784
ag18
(g22
S'\xe6\xd3\x9d\xc4\xc14A\xbf'
p785
tp786
Rp787
ag18
(g22
S'\xffH\xf5(7\xe1\x8c?'
p788
tp789
Rp790
ag18
(g22
S'\xc8\xc4\x85$Q\x12w?'
p791
tp792
Rp793
ag18
(g22
S'\xf6\xbb\xfaM\x90\xeeU\xbf'
p794
tp795
Rp796
ag18
(g22
S'\x1d\x8cB\xcf\xddu\xa0?'
p797
tp798
Rp799
ag18
(g22
S'\\d\xb6\xe7r-\x92?'
p800
tp801
Rp802
ag18
(g22
S'\xa5/\x18\xd3\xff\x93\x99?'
p803
tp804
Rp805
ag18
(g22
S'*\xebP\xf0\xf1s~?'
p806
tp807
Rp808
ag18
(g22
S'R\xb8\xd4\xb6\xfe \xe2\xbe'
p809
tp810
Rp811
ag18
(g22
S'X\x96w\xd8\xea\xb2\x87?'
p812
tp813
Rp814
ag18
(g22
S'\xc0L\x8a\x81\xe4\x1e\x8c?'
p815
tp816
Rp817
ag18
(g22
S'\xc8\xd4\xbeS\x95\xc3\x87?'
p818
tp819
Rp820
ag18
(g22
S'\xaaR\x8c\xf1t\x05\x82?'
p821
tp822
Rp823
ag18
(g22
S'\t+\xcdD\xc3\xf4\x80?'
p824
tp825
Rp826
ag18
(g22
S'\xf6R`^\xe2v\x93?'
p827
tp828
Rp829
ag18
(g22
S' \x0eAF\xe0\xb1\x8a?'
p830
tp831
Rp832
ag18
(g22
S'\x9a\x81}\x9d\xe3\xb6v\xbf'
p833
tp834
Rp835
ag18
(g22
S'\x0c\xf5\xc2\xac\x93V\x85?'
p836
tp837
Rp838
ag18
(g22
S'\xc8\x91\x1a*\xb7D\x87?'
p839
tp840
Rp841
ag18
(g22
S'\xac\xbe~(\xbc\xd3{?'
p842
tp843
Rp844
ag18
(g22
S'\xdf\xdfJ\x9cyu\x8c?'
p845
tp846
Rp847
ag18
(g22
S'i\x1c\xcb\xfcr\x1dr?'
p848
tp849
Rp850
ag18
(g22
S'\xbax\xe2.V7\x96?'
p851
tp852
Rp853
ag18
(g22
S'\xbdn\xeb\xc7\xa9\x8b\x81?'
p854
tp855
Rp856
ag18
(g22
S'\xc5\\\x8d\x8d\xbbkz?'
p857
tp858
Rp859
ag18
(g22
S'\x9a\xe6\xf13\x11ae\xbf'
p860
tp861
Rp862
ag18
(g22
S'\x8aE!_\ruY?'
p863
tp864
Rp865
ag18
(g22
S'\xbaK[\xfb\x97\xaf\x9c?'
p866
tp867
Rp868
ag18
(g22
S'\xa9\xb04\xef\x83\xa0v?'
p869
tp870
Rp871
ag18
(g22
S'\x08\xa5K\x9f\x10\x98t?'
p872
tp873
Rp874
ag18
(g22
S'\xd8\xea\xf2\x0fGl\x81?'
p875
tp876
Rp877
ag18
(g22
S'v>D\x83<\xc6\x90?'
p878
tp879
Rp880
ag18
(g22
S'\xaa8\xe2\xde\xf4E\x93?'
p881
tp882
Rp883
ag18
(g22
S' \xe8\x95C\x17{\x83\xbf'
p884
tp885
Rp886
ag18
(g22
S'\xb6\x83t\x19\xd3\xf2b?'
p887
tp888
Rp889
ag18
(g22
S'{\x92[XJ[|?'
p890
tp891
Rp892
ag18
(g22
S'\x14\xf7\xb7\x88lGZ\xbf'
p893
tp894
Rp895
ag18
(g22
S'\x97\xae\x80J\xf5X\x8e?'
p896
tp897
Rp898
ag18
(g22
S'R\x04Gv\xf0p.\xbf'
p899
tp900
Rp901
ag18
(g22
S'\x8a\x9fg\xacV\x8c\xa0?'
p902
tp903
Rp904
ag18
(g22
S'\xbc\x03x\x9d\x12\x85\x8c?'
p905
tp906
Rp907
ag18
(g22
S'\x8a\xa7\xb9\xaf\xe5Y\x8e?'
p908
tp909
Rp910
ag18
(g22
S's\xca\xa0`7\xa9\x83?'
p911
tp912
Rp913
ag18
(g22
S'C_\x06J\xfe\x89\x84?'
p914
tp915
Rp916
ag18
(g22
S'\xaezw\x11";u\xbf'
p917
tp918
Rp919
ag18
(g22
S'v\xb8\xffM\x1b\xd3W?'
p920
tp921
Rp922
ag18
(g22
S'j\xecIC\xc2_\x8e?'
p923
tp924
Rp925
ag18
(g22
S'\xa63@l\x01F_?'
p926
tp927
Rp928
ag18
(g22
S'Z\x13\xc5>\r\xad\x90?'
p929
tp930
Rp931
ag18
(g22
S'AG\x06G>\tw?'
p932
tp933
Rp934
ag18
(g22
S'\xb8\x06\xb3\xdd\xe2B\x85?'
p935
tp936
Rp937
ag18
(g22
S'#\xc3D\x1eP`m?'
p938
tp939
Rp940
ag18
(g22
S'\x94;\xc5\xd0)\xcb\x8c?'
p941
tp942
Rp943
ag18
(g22
S'I\x83\xe2\x12+\xc4\x9f?'
p944
tp945
Rp946
ag18
(g22
S'O\xfe\x1b\x0e\x91\xa3F\xbf'
p947
tp948
Rp949
ag18
(g22
S')8\x86zC\xfe\x8f?'
p950
tp951
Rp952
ag18
(g22
S'\xd8i\x9a\r%\xac\x80?'
p953
tp954
Rp955
ag18
(g22
S';\x1d{\x01\x1f7\x8a?'
p956
tp957
Rp958
ag18
(g22
S'\x80\xb2\xd1\xfax\x80z?'
p959
tp960
Rp961
ag18
(g22
S'\x94\xf8\x82\xd6\xcaz\x99?'
p962
tp963
Rp964
ag18
(g22
S'\xdc\xcc\xde\x04\xacH\x83?'
p965
tp966
Rp967
ag18
(g22
S'\x05H?\xbbi7\x98?'
p968
tp969
Rp970
ag18
(g22
S'\xb6I\xac\xe1\xa7<v?'
p971
tp972
Rp973
ag18
(g22
S'j\x90t\xec6\xa4q\xbf'
p974
tp975
Rp976
ag18
(g22
S'\xdaG\x93\xa9%\x91\x89?'
p977
tp978
Rp979
ag18
(g22
S'\x9c\x82!\x1fZ\xfe\x88?'
p980
tp981
Rp982
ag18
(g22
S'\xae&\x8b\xf9\x81;4\xbf'
p983
tp984
Rp985
ag18
(g22
S'\x81\xde_\xe6\xd7\xf6\x90?'
p986
tp987
Rp988
ag18
(g22
S'\x8fj\x81\x04:Hq?'
p989
tp990
Rp991
ag18
(g22
S'T\xc5\tF\xbd\xed\x82?'
p992
tp993
Rp994
ag18
(g22
S'\\~p\x95\xd6`y?'
p995
tp996
Rp997
ag18
(g22
S'\x05\xe8\xf8\n\x9e<v?'
p998
tp999
Rp1000
ag18
(g22
S'\xcaA\x8d]\x11YW?'
p1001
tp1002
Rp1003
ag18
(g22
S']\xb6\x1e\x15\x827B?'
p1004
tp1005
Rp1006
ag18
(g22
S'#\x12\x82\x8d\xde\xa8\x8f?'
p1007
tp1008
Rp1009
ag18
(g22
S'\xc0\x95L\x0bd\\d\xbf'
p1010
tp1011
Rp1012
ag18
(g22
S'\x03\xfb\xd17u\x1a\x8c?'
p1013
tp1014
Rp1015
ag18
(g22
S'\xa8\x92F\xfel\x9a\x87?'
p1016
tp1017
Rp1018
ag18
(g22
S'\x1av\xd5z\xf1\xe1V\xbf'
p1019
tp1020
Rp1021
ag18
(g22
S'\xeae\x06Dp\r\x8f?'
p1022
tp1023
Rp1024
ag18
(g22
S'\xe63\x92\xd8\x05\xc2\x95?'
p1025
tp1026
Rp1027
ag18
(g22
S'\xcd\x92n-\xd8\x8fg\xbf'
p1028
tp1029
Rp1030
ag18
(g22
S"\xd2\x9f'jh;m\xbf"
p1031
tp1032
Rp1033
ag18
(g22
S'\x04\x9dK\x06\xae\xe9x?'
p1034
tp1035
Rp1036
ag18
(g22
S'\x14h\xab6\xb3\rM?'
p1037
tp1038
Rp1039
ag18
(g22
S'd\x88\t\xf2\xd3zg\xbf'
p1040
tp1041
Rp1042
ag18
(g22
S'\xc8\xf7\x1d\xc0\xeb\xebZ?'
p1043
tp1044
Rp1045
ag18
(g22
S'\xe4\xd9\xd3\xa6\x89=b\xbf'
p1046
tp1047
Rp1048
ag18
(g22
S'.,\xd4\xa9\xba=j\xbf'
p1049
tp1050
Rp1051
ag18
(g22
S'@\xef\x0e\x7faZ\x96?'
p1052
tp1053
Rp1054
ag18
(g22
S'\x16\xf8\x00RL\xe9\x80?'
p1055
tp1056
Rp1057
ag18
(g22
S'W\x15\xf4\xd2\x16)\x9d?'
p1058
tp1059
Rp1060
ag18
(g22
S'f\xe6\x9e\xd8(-"\xbf'
p1061
tp1062
Rp1063
ag18
(g22
S'\xd2\x94-\x8a\x05\xc9{?'
p1064
tp1065
Rp1066
ag18
(g22
S'H\xb1\xdd>\x92\x80\x1f\xbf'
p1067
tp1068
Rp1069
ag18
(g22
S'\x1a\xe7*v\x1b\x92T?'
p1070
tp1071
Rp1072
ag18
(g22
S'\x85n\x19\xc16\x80|?'
p1073
tp1074
Rp1075
ag18
(g22
S'\x14\xe5\xec\xbb\x90qo?'
p1076
tp1077
Rp1078
ag18
(g22
S'[{5\xe0\xb9\x0eb?'
p1079
tp1080
Rp1081
ag18
(g22
S'4\xfd\xd1\xeb\xe3)\x92?'
p1082
tp1083
Rp1084
ag18
(g22
S'vi\rm#\xe3p?'
p1085
tp1086
Rp1087
ag18
(g22
S'j\xad\xe4\xe8Pr\x97?'
p1088
tp1089
Rp1090
ag18
(g22
S'\xca\x19\xc8\r2Tr?'
p1091
tp1092
Rp1093
ag18
(g22
S'\\\x9c\x0e\x00\x01k\x94?'
p1094
tp1095
Rp1096
ag18
(g22
S'f\x06\xd3\xc2\xfb\x0b\x85?'
p1097
tp1098
Rp1099
ag18
(g22
S'\xea\x99\xbb\x08l\xc4c\xbf'
p1100
tp1101
Rp1102
ag18
(g22
S'\x96e\xfa3R\xf8\x92?'
p1103
tp1104
Rp1105
ag18
(g22
S'@,\xf5fx\xa0t?'
p1106
tp1107
Rp1108
ag18
(g22
S'R\xdd\xfcx\x87`}\xbf'
p1109
tp1110
Rp1111
ag18
(g22
S'\xda\xdb\x94\xd1\xab\x87n\xbf'
p1112
tp1113
Rp1114
ag18
(g22
S'\xcf\x7fJk\x1b\xc9\xa0?'
p1115
tp1116
Rp1117
ag18
(g22
S'#v\x892\xbd\xf6\x97?'
p1118
tp1119
Rp1120
ag18
(g22
S'7xP,\r\xdb}?'
p1121
tp1122
Rp1123
ag18
(g22
S'{\xdc\xef\xac(\xd3\x13\xbf'
p1124
tp1125
Rp1126
ag18
(g22
S'C\x1a~\xb5b\xf2|?'
p1127
tp1128
Rp1129
ag18
(g22
S'v#\xe3@E\xdd]?'
p1130
tp1131
Rp1132
ag18
(g22
S'\x914OX9`\x82?'
p1133
tp1134
Rp1135
ag18
(g22
S'z\x94\x00\xebq>\x97?'
p1136
tp1137
Rp1138
ag18
(g22
S'$e\x14j\x00&\x98?'
p1139
tp1140
Rp1141
ag18
(g22
S'H\x94\xa8\xaa\xf1\xf8\x99?'
p1142
tp1143
Rp1144
ag18
(g22
S'f$\xc1\xc5I\x86\x9b?'
p1145
tp1146
Rp1147
ag18
(g22
S'\xfd \xfaZ\xac|j\xbf'
p1148
tp1149
Rp1150
ag18
(g22
S'!C\xe4\xd3\x9c\rX\xbf'
p1151
tp1152
Rp1153
ag18
(g22
S'q[\xea\x19\x9a\xd9\x8f?'
p1154
tp1155
Rp1156
ag18
(g22
S'1T\xf9\xae\x15\xabm\xbf'
p1157
tp1158
Rp1159
ag18
(g22
S'\xe4\xce\xc0H\x89\x86\xa1?'
p1160
tp1161
Rp1162
ag18
(g22
S'\xc3\xbb\x10f\xe5\xd9@?'
p1163
tp1164
Rp1165
ag18
(g22
S'\x12W\x06\x96\xadD\x94?'
p1166
tp1167
Rp1168
ag18
(g22
S'L\xbd\xe5\x90\x0cP\x9d?'
p1169
tp1170
Rp1171
ag18
(g22
S'\xd9\x11\x8e\x86H=\x93?'
p1172
tp1173
Rp1174
ag18
(g22
S'v\xf5\xc7\xfdQ\xf6x\xbf'
p1175
tp1176
Rp1177
ag18
(g22
S'\x13\xbe\xcf\xd8\xab\xef\x97?'
p1178
tp1179
Rp1180
ag18
(g22
S'\xb8\xaaY8\xda\xb9^\xbf'
p1181
tp1182
Rp1183
ag18
(g22
S'?!J\x1c\x1d\x94\x82?'
p1184
tp1185
Rp1186
ag18
(g22
S'$fb~\x01U\x8d?'
p1187
tp1188
Rp1189
ag18
(g22
S'\x85zT\x1f\xc6\x93\x96?'
p1190
tp1191
Rp1192
ag18
(g22
S'J\x04\x99\xbf\xd9\xd7i\xbf'
p1193
tp1194
Rp1195
ag18
(g22
S'\xbd\x98L\xc75O\x8a?'
p1196
tp1197
Rp1198
ag18
(g22
S'\xbfs\xce\xbf\xf2\xf0\x82?'
p1199
tp1200
Rp1201
ag18
(g22
S'|V\xd1\xd6\xc6\xea\x9b?'
p1202
tp1203
Rp1204
ag18
(g22
S'\xd8\x94\xef\xab\x97a\x83?'
p1205
tp1206
Rp1207
ag18
(g22
S'\xcd\xa6\xec\xe3\xac\xb8t?'
p1208
tp1209
Rp1210
ag18
(g22
S't1\xfb[9\xe7\xa1?'
p1211
tp1212
Rp1213
ag18
(g22
S'\x94WD\x88\xc6\xc1\x9c?'
p1214
tp1215
Rp1216
ag18
(g22
S'\xc4/5\xbf?|l?'
p1217
tp1218
Rp1219
ag18
(g22
S"\x00\x9f\xf2\x8bF'3?"
p1220
tp1221
Rp1222
ag18
(g22
S'\x17w\xa4%\xdb\xe9\x81?'
p1223
tp1224
Rp1225
ag18
(g22
S'\xbb\xbf-\xa5\x0b1\x86?'
p1226
tp1227
Rp1228
ag18
(g22
S'\xc3UP_\xe2>\x97?'
p1229
tp1230
Rp1231
ag18
(g22
S'_\xd9\xa9\xe4\xd2\xc8\x8a?'
p1232
tp1233
Rp1234
ag18
(g22
S',\xf1\xb2`x\x1f\x9d?'
p1235
tp1236
Rp1237
ag18
(g22
S'\xe8\x8d\xfa\x90d\x9f\x9f?'
p1238
tp1239
Rp1240
ag18
(g22
S'I\xea\xd5{\x8fQ\x86?'
p1241
tp1242
Rp1243
ag18
(g22
S'\x7f\xf1\xba\x969T\x99?'
p1244
tp1245
Rp1246
ag18
(g22
S'x\xb4\x1cGz\xad\\?'
p1247
tp1248
Rp1249
ag18
(g22
S'=i\xe2%}\x19w?'
p1250
tp1251
Rp1252
ag18
(g22
S')9iI\xfc\xd4.?'
p1253
tp1254
Rp1255
ag18
(g22
S'\x1c\x8d\x99y\xa5\x0cl\xbf'
p1256
tp1257
Rp1258
ag18
(g22
S'\x05\xb39\x97\xf4\x96]?'
p1259
tp1260
Rp1261
ag18
(g22
S'_\x15\x03\x00\x1a\xeco?'
p1262
tp1263
Rp1264
ag18
(g22
S'N\xa5%\xa0\xb7Ci?'
p1265
tp1266
Rp1267
ag18
(g22
S"\xb3'\x1fO\x81\xb3b?"
p1268
tp1269
Rp1270
ag18
(g22
S'\xf1\xdc\xcd\xe49\xe2R?'
p1271
tp1272
Rp1273
ag18
(g22
S'Z[\x80c\xebHj\xbf'
p1274
tp1275
Rp1276
ag18
(g22
S"1O'\xa9\xf4<\x82?"
p1277
tp1278
Rp1279
ag18
(g22
S'\x08\xfd\\\x8f\x809\x99?'
p1280
tp1281
Rp1282
ag18
(g22
S'\xb3\xcf\xad7\xb1\x82x\xbf'
p1283
tp1284
Rp1285
ag18
(g22
S'\xc1tuJ\x8f=D?'
p1286
tp1287
Rp1288
ag18
(g22
S'\xac\x9f#\xba\xef\x00\x9d?'
p1289
tp1290
Rp1291
ag18
(g22
S'\xdd\x1b{*bW\x81?'
p1292
tp1293
Rp1294
ag18
(g22
S'\xe9\x8d\x9d)3\xdb\x86?'
p1295
tp1296
Rp1297
ag18
(g22
S'\xbaT\x01\x80\xb3Y\x88?'
p1298
tp1299
Rp1300
ag18
(g22
S'\xd4\x1e/&U\x97\x91?'
p1301
tp1302
Rp1303
ag18
(g22
S'8py\xeaS\x99\x9b?'
p1304
tp1305
Rp1306
ag18
(g22
S'n\xbe\xd2\xc3\x16F\x96?'
p1307
tp1308
Rp1309
ag18
(g22
S'\x14\x7f\x08#\x12\xf1L?'
p1310
tp1311
Rp1312
ag18
(g22
S'\xdb\xd3\x11f\xa2\xd0r?'
p1313
tp1314
Rp1315
ag18
(g22
S'xY\xff\xb8\x16\x16\x84?'
p1316
tp1317
Rp1318
ag18
(g22
S'\x14&\x14\xb9\xe4\xee%?'
p1319
tp1320
Rp1321
ag18
(g22
S'= \xa9\xbd\xfaA\\?'
p1322
tp1323
Rp1324
ag18
(g22
S'\x03\xe6*\xf9&\xd5~?'
p1325
tp1326
Rp1327
ag18
(g22
S'=\xbd\xdb\x89H&x?'
p1328
tp1329
Rp1330
ag18
(g22
S'*\x9a;\x01\x86Q\x85?'
p1331
tp1332
Rp1333
ag18
(g22
S'\xc0`\xdd\x1d\x0cX|?'
p1334
tp1335
Rp1336
ag18
(g22
S'\x15\x17\xacU\xf1\xdbQ\xbf'
p1337
tp1338
Rp1339
ag18
(g22
S'\x00\xed\x897c\xbf\x81?'
p1340
tp1341
Rp1342
ag18
(g22
S'\xfa\x85p D\xbe\xa0?'
p1343
tp1344
Rp1345
ag18
(g22
S'\xec\xd4\x08\x9a\xcf\xa5\x87?'
p1346
tp1347
Rp1348
ag18
(g22
S'\xf2I\xe9,\x9bO\x90?'
p1349
tp1350
Rp1351
ag18
(g22
S'\x1bI/\xf26\x83T?'
p1352
tp1353
Rp1354
ag18
(g22
S'\xb3h\xa4\xcfs\x96`\xbf'
p1355
tp1356
Rp1357
ag18
(g22
S'\xae\xe3\x85\xbe\x84\x8c\x1a\xbf'
p1358
tp1359
Rp1360
ag18
(g22
S'!\xe1\xb3\xfa\xf3\x0c\x8d?'
p1361
tp1362
Rp1363
ag18
(g22
S'{R\x8b\xa0\x91\xfe\x9c?'
p1364
tp1365
Rp1366
ag18
(g22
S'\x14@\xc6~\x06kk?'
p1367
tp1368
Rp1369
ag18
(g22
S'\x9a\x009\x07*\xec\x80?'
p1370
tp1371
Rp1372
ag18
(g22
S'\x8f\x1b\xa7\xcb\xb4\xb1\x13?'
p1373
tp1374
Rp1375
ag18
(g22
S'M\xfeG\xc1\xaf\xd6\x80\xbf'
p1376
tp1377
Rp1378
ag18
(g22
S'\x8dS\x86\x17\x8e(`\xbf'
p1379
tp1380
Rp1381
ag18
(g22
S'\xbdz|>Zv\x7f?'
p1382
tp1383
Rp1384
ag18
(g22
S'\x97\xc4~\xa4`cV\xbf'
p1385
tp1386
Rp1387
ag18
(g22
S'\xe5J\xb4\xe2t?s\xbf'
p1388
tp1389
Rp1390
ag18
(g22
S'\x14qN^\xff\xfdS?'
p1391
tp1392
Rp1393
ag18
(g22
S'\xc3:%\x9dU\x06\x8a?'
p1394
tp1395
Rp1396
ag18
(g22
S'.\x87\x8dsO\xde{?'
p1397
tp1398
Rp1399
ag18
(g22
S'n\x84\xb4\xa7\xcd\xc2\xa9?'
p1400
tp1401
Rp1402
ag18
(g22
S'31\xbf\xa5Nv\x7f?'
p1403
tp1404
Rp1405
ag18
(g22
S'\xcdw\xd6\xc6lHz?'
p1406
tp1407
Rp1408
ag18
(g22
S'\x8a\xee\xde\xe3\xd2\xb5{?'
p1409
tp1410
Rp1411
ag18
(g22
S'\xc10V\x02\xacC{?'
p1412
tp1413
Rp1414
ag18
(g22
S'\xc3\xaa\xe5Y\x11)\xa1?'
p1415
tp1416
Rp1417
ag18
(g22
S'\xcf\xce5\xe0l\x99r?'
p1418
tp1419
Rp1420
ag18
(g22
S'F\xce\x12\xa9\x83\xe5q?'
p1421
tp1422
Rp1423
ag18
(g22
S'\xfbpH\xf9\x7f\xcah?'
p1424
tp1425
Rp1426
ag18
(g22
S'\xf2\xe1\r\xc7\x0fGv?'
p1427
tp1428
Rp1429
ag18
(g22
S'?\xbd\xb2\x1b8\x92\x95?'
p1430
tp1431
Rp1432
ag18
(g22
S'\xf8R\xf5oU\xc5f\xbf'
p1433
tp1434
Rp1435
ag18
(g22
S'\xb2t\xb8*,\xb7|?'
p1436
tp1437
Rp1438
ag18
(g22
S'q\xa2i\xee7\x8bV?'
p1439
tp1440
Rp1441
ag18
(g22
S'\x1a\xf2\x93 \xfd\xdf\x8e?'
p1442
tp1443
Rp1444
ag18
(g22
S'\x8e\xb3=,\x12*\x97?'
p1445
tp1446
Rp1447
ag18
(g22
S'6\xeb\x10\xf9\xf6\xb4~?'
p1448
tp1449
Rp1450
ag18
(g22
S'.<\xd13\x11\xfdt?'
p1451
tp1452
Rp1453
ag18
(g22
S'\x8ac]\x00;\x84h?'
p1454
tp1455
Rp1456
ag18
(g22
S'\x8a\xc9\xde\xe3t_\xa0?'
p1457
tp1458
Rp1459
ag18
(g22
S'\x1fI>\xb99)9?'
p1460
tp1461
Rp1462
ag18
(g22
S'l\xf4\x8c\x0b\xdf\x128\xbf'
p1463
tp1464
Rp1465
ag18
(g22
S'ffL\xa7\x9cYo\xbf'
p1466
tp1467
Rp1468
ag18
(g22
S'(\xe6\xa8\xff\x1d\xe2\x8b?'
p1469
tp1470
Rp1471
ag18
(g22
S'!\x0ft\xc1\xc5f\x84?'
p1472
tp1473
Rp1474
ag18
(g22
S'(\xea\xa17c3\x9a?'
p1475
tp1476
Rp1477
ag18
(g22
S'Xm\xc9x\xe7\x7f\x93?'
p1478
tp1479
Rp1480
ag18
(g22
S'O8\xdb\x9dxas\xbf'
p1481
tp1482
Rp1483
ag18
(g22
S'\x00\xea\x8e\xb6d<z?'
p1484
tp1485
Rp1486
ag18
(g22
S'/\x1b\xd4\x9bz\x14}?'
p1487
tp1488
Rp1489
ag18
(g22
S'\x89\x80\xbb,\xa1{h?'
p1490
tp1491
Rp1492
ag18
(g22
S'\xa0\xcf\xaa\xcb\xc8v\x84?'
p1493
tp1494
Rp1495
ag18
(g22
S'\xf1\x89;\x01=Q\x86?'
p1496
tp1497
Rp1498
ag18
(g22
S';s\xab?\xf0\x8dx?'
p1499
tp1500
Rp1501
ag18
(g22
S':\xcd\xd8\nG\x18\x91?'
p1502
tp1503
Rp1504
ag18
(g22
S'\xec\xed\xe53\xf3f3\xbf'
p1505
tp1506
Rp1507
ag18
(g22
S'\x91\xa4GEh\xf6|?'
p1508
tp1509
Rp1510
ag18
(g22
S'\xd1\xdf6{\xb3\xebs?'
p1511
tp1512
Rp1513
ag18
(g22
S'\x85\xd2\xeeg\xd1\xf9\x83?'
p1514
tp1515
Rp1516
ag18
(g22
S'\xb3\xcei\xbaV\xbf\x8f?'
p1517
tp1518
Rp1519
ag18
(g22
S'!\xbeZ4\xd2\xcb^?'
p1520
tp1521
Rp1522
ag18
(g22
S'5\xcdTUs=t\xbf'
p1523
tp1524
Rp1525
ag18
(g22
S'm\xad\x0eM\x08\x0ep\xbf'
p1526
tp1527
Rp1528
ag18
(g22
S'\x11X\x8dPP\xe2\x83?'
p1529
tp1530
Rp1531
ag18
(g22
S'Y\n\x9e\xd8\xe7\x85\x82?'
p1532
tp1533
Rp1534
ag18
(g22
S'Z\xc0m\xf1?\x16S?'
p1535
tp1536
Rp1537
asS'ts'
p1538
(lp1539
I60000
aI70000
aI80000
aI90000
aI100000
aI110000
aI120000
aI130000
aI140000
aI150000
aI160000
aI170000
aI180000
aI190000
aI200000
aI210000
aI220000
aI230000
aI240000
aI250000
aI260000
aI270000
aI280000
aI290000
aI300000
aI310000
aI320000
aI330000
aI340000
aI350000
aI360000
aI370000
aI380000
aI390000
aI400000
aI410000
aI420000
aI430000
aI440000
aI450000
aI460000
aI470000
aI480000
aI490000
aI500000
aI510000
aI520000
aI530000
aI540000
aI550000
aI560000
aI570000
aI580000
aI590000
aI600000
aI610000
aI620000
aI630000
aI640000
aI650000
aI660000
aI670000
aI680000
aI690000
aI700000
aI710000
aI720000
aI730000
aI740000
aI750000
aI760000
aI770000
aI780000
aI790000
aI800000
aI810000
aI820000
aI830000
aI840000
aI850000
aI860000
aI870000
aI880000
aI890000
aI900000
aI910000
aI920000
aI930000
aI940000
aI950000
aI960000
aI970000
aI980000
aI990000
aI1000000
aI1010000
aI1020000
aI1030000
aI1040000
aI1050000
aI1060000
aI1070000
aI1080000
aI1090000
aI1100000
aI1110000
aI1120000
aI1130000
aI1140000
aI1150000
aI1160000
aI1170000
aI1180000
aI1190000
aI1200000
aI1210000
aI1220000
aI1230000
aI1240000
aI1250000
aI1260000
aI1270000
aI1280000
aI1290000
aI1300000
aI1310000
aI1320000
aI1330000
aI1340000
aI1350000
aI1360000
aI1370000
aI1380000
aI1390000
aI1400000
aI1410000
aI1420000
aI1430000
aI1440000
aI1450000
aI1460000
aI1470000
aI1480000
aI1490000
aI1500000
aI1510000
aI1520000
aI1530000
aI1540000
aI1550000
aI1560000
aI1570000
aI1580000
aI1590000
aI1600000
aI1610000
aI1620000
aI1630000
aI1640000
aI1650000
aI1660000
aI1670000
aI1680000
aI1690000
aI1700000
aI1710000
aI1720000
aI1730000
aI1740000
aI1750000
aI1760000
aI1770000
aI1780000
aI1790000
aI1800000
aI1810000
aI1820000
aI1830000
aI1840000
aI1850000
aI1860000
aI1870000
aI1880000
aI1890000
aI1900000
aI1910000
aI1920000
aI1930000
aI1940000
aI1950000
aI1960000
aI1970000
aI1980000
aI1990000
aI2000000
aI2010000
aI2020000
aI2030000
aI2040000
aI2050000
aI2060000
aI2070000
aI2080000
aI2090000
aI2100000
aI2110000
aI2120000
aI2130000
aI2140000
aI2150000
aI2160000
aI2170000
aI2180000
aI2190000
aI2200000
aI2210000
aI2220000
aI2230000
aI2240000
aI2250000
aI2260000
aI2270000
aI2280000
aI2290000
aI2300000
aI2310000
aI2320000
aI2330000
aI2340000
aI2350000
aI2360000
aI2370000
aI2380000
aI2390000
aI2400000
aI2410000
aI2420000
aI2430000
aI2440000
aI2450000
aI2460000
aI2470000
aI2480000
aI2490000
aI2500000
aI2510000
aI2520000
aI2530000
aI2540000
aI2550000
aI2560000
aI2570000
aI2580000
aI2590000
aI2600000
aI2610000
aI2620000
aI2630000
aI2640000
aI2650000
aI2660000
aI2670000
aI2680000
aI2690000
aI2700000
aI2710000
aI2720000
aI2730000
aI2740000
aI2750000
aI2760000
aI2770000
aI2780000
aI2790000
aI2800000
aI2810000
aI2820000
aI2830000
aI2840000
aI2850000
aI2860000
aI2870000
aI2880000
aI2890000
aI2900000
aI2910000
aI2920000
aI2930000
aI2940000
aI2950000
aI2960000
aI2970000
aI2980000
aI2990000
aI3000000
aI3010000
aI3020000
aI3030000
aI3040000
aI3050000
aI3060000
aI3070000
aI3080000
aI3090000
aI3100000
aI3110000
aI3120000
aI3130000
aI3140000
aI3150000
aI3160000
aI3170000
aI3180000
aI3190000
aI3200000
aI3210000
aI3220000
aI3230000
aI3240000
aI3250000
aI3260000
aI3270000
aI3280000
aI3290000
aI3300000
aI3310000
aI3320000
aI3330000
aI3340000
aI3350000
aI3360000
aI3370000
aI3380000
aI3390000
aI3400000
aI3410000
aI3420000
aI3430000
aI3440000
aI3450000
aI3460000
aI3470000
aI3480000
aI3490000
aI3500000
aI3510000
aI3520000
aI3530000
aI3540000
aI3550000
aI3560000
aI3570000
aI3580000
aI3590000
aI3600000
aI3610000
aI3620000
aI3630000
aI3640000
aI3650000
aI3660000
aI3670000
aI3680000
aI3690000
aI3700000
aI3710000
aI3720000
aI3730000
aI3740000
aI3750000
aI3760000
aI3770000
aI3780000
aI3790000
aI3800000
aI3810000
aI3820000
aI3830000
aI3840000
aI3850000
aI3860000
aI3870000
aI3880000
aI3890000
aI3900000
aI3910000
aI3920000
aI3930000
aI3940000
aI3950000
aI3960000
aI3970000
aI3980000
aI3990000
aI4000000
aI4010000
aI4020000
aI4030000
aI4040000
aI4050000
aI4060000
aI4070000
aI4080000
aI4090000
aI4100000
aI4110000
aI4120000
aI4130000
aI4140000
aI4150000
aI4160000
aI4170000
aI4180000
aI4190000
aI4200000
aI4210000
aI4220000
aI4230000
aI4240000
aI4250000
aI4260000
aI4270000
aI4280000
aI4290000
aI4300000
aI4310000
aI4320000
aI4330000
aI4340000
aI4350000
aI4360000
aI4370000
aI4380000
aI4390000
aI4400000
aI4410000
aI4420000
aI4430000
aI4440000
aI4450000
aI4460000
aI4470000
aI4480000
aI4490000
aI4500000
aI4510000
aI4520000
aI4530000
aI4540000
aI4550000
aI4560000
aI4570000
aI4580000
aI4590000
aI4600000
aI4610000
aI4620000
aI4630000
aI4640000
aI4650000
aI4660000
aI4670000
aI4680000
aI4690000
aI4700000
aI4710000
aI4720000
aI4730000
aI4740000
aI4750000
aI4760000
aI4770000
aI4780000
aI4790000
aI4800000
aI4810000
aI4820000
aI4830000
aI4840000
aI4850000
aI4860000
aI4870000
aI4880000
aI4890000
aI4900000
aI4910000
aI4920000
aI4930000
aI4940000
aI4950000
aI4960000
aI4970000
aI4980000
aI4990000
aI5000000
asS'episodes'
p1540
(lp1541
I606
aI707
aI809
aI910
aI1011
aI1112
aI1213
aI1314
aI1415
aI1516
aI1616
aI1717
aI1817
aI1918
aI2020
aI2121
aI2223
aI2324
aI2425
aI2526
aI2626
aI2726
aI2827
aI2928
aI3029
aI3130
aI3231
aI3332
aI3433
aI3534
aI3636
aI3737
aI3838
aI3939
aI4040
aI4141
aI4242
aI4343
aI4443
aI4544
aI4645
aI4746
aI4847
aI4949
aI5050
aI5151
aI5252
aI5353
aI5454
aI5554
aI5655
aI5756
aI5857
aI5958
aI6060
aI6161
aI6262
aI6363
aI6464
aI6564
aI6665
aI6766
aI6867
aI6969
aI7070
aI7171
aI7271
aI7372
aI7473
aI7573
aI7674
aI7774
aI7875
aI7975
aI8076
aI8177
aI8278
aI8379
aI8480
aI8581
aI8682
aI8783
aI8884
aI8985
aI9085
aI9185
aI9286
aI9387
aI9487
aI9588
aI9687
aI9785
aI9886
aI9987
aI10088
aI10189
aI10290
aI10391
aI10491
aI10592
aI10692
aI10793
aI10890
aI10987
aI11087
aI11188
aI11289
aI11390
aI11491
aI11591
aI11692
aI11793
aI11894
aI11994
aI12094
aI12195
aI12296
aI12396
aI12497
aI12598
aI12699
aI12800
aI12901
aI13002
aI13101
aI13201
aI13301
aI13402
aI13503
aI13603
aI13704
aI13805
aI13905
aI14006
aI14106
aI14207
aI14308
aI14408
aI14510
aI14611
aI14712
aI14813
aI14914
aI15014
aI15115
aI15216
aI15317
aI15418
aI15518
aI15619
aI15720
aI15821
aI15922
aI16023
aI16124
aI16225
aI16326
aI16427
aI16527
aI16628
aI16728
aI16829
aI16930
aI17031
aI17132
aI17233
aI17334
aI17435
aI17536
aI17637
aI17738
aI17839
aI17939
aI18040
aI18141
aI18238
aI18338
aI18439
aI18540
aI18639
aI18740
aI18841
aI18942
aI19043
aI19144
aI19245
aI19346
aI19447
aI19547
aI19648
aI19747
aI19848
aI19949
aI20050
aI20151
aI20252
aI20353
aI20454
aI20555
aI20656
aI20757
aI20858
aI20959
aI21060
aI21160
aI21261
aI21362
aI21463
aI21564
aI21665
aI21766
aI21863
aI21964
aI22065
aI22166
aI22267
aI22367
aI22468
aI22569
aI22670
aI22771
aI22872
aI22972
aI23073
aI23174
aI23275
aI23371
aI23472
aI23573
aI23674
aI23775
aI23876
aI23977
aI24078
aI24179
aI24280
aI24381
aI24482
aI24583
aI24681
aI24782
aI24883
aI24984
aI25085
aI25185
aI25286
aI25387
aI25488
aI25589
aI25690
aI25790
aI25887
aI25988
aI26089
aI26190
aI26291
aI26392
aI26492
aI26593
aI26694
aI26795
aI26892
aI26992
aI27093
aI27194
aI27295
aI27391
aI27492
aI27589
aI27690
aI27791
aI27891
aI27992
aI28093
aI28194
aI28295
aI28395
aI28496
aI28597
aI28698
aI28799
aI28900
aI29001
aI29101
aI29202
aI29301
aI29402
aI29503
aI29604
aI29705
aI29806
aI29907
aI30008
aI30109
aI30208
aI30309
aI30410
aI30511
aI30612
aI30713
aI30814
aI30915
aI31015
aI31116
aI31217
aI31319
aI31420
aI31521
aI31618
aI31718
aI31819
aI31920
aI32021
aI32122
aI32223
aI32324
aI32425
aI32526
aI32623
aI32724
aI32825
aI32925
aI33026
aI33127
aI33225
aI33326
aI33427
aI33525
aI33626
aI33727
aI33828
aI33929
aI34030
aI34130
aI34231
aI34330
aI34431
aI34532
aI34629
aI34728
aI34827
aI34928
aI35029
aI35129
aI35230
aI35331
aI35432
aI35533
aI35634
aI35735
aI35836
aI35937
aI36038
aI36139
aI36240
aI36341
aI36442
aI36543
aI36643
aI36744
aI36845
aI36946
aI37048
aI37145
aI37247
aI37348
aI37449
aI37553
aI37654
aI37748
aI37849
aI37949
aI38049
aI38151
aI38252
aI38353
aI38454
aI38555
aI38652
aI38753
aI38854
aI38955
aI39056
aI39156
aI39257
aI39354
aI39455
aI39551
aI39652
aI39753
aI39854
aI39955
aI40052
aI40149
aI40246
aI40343
aI40442
aI40539
aI40640
aI40742
aI40843
aI40944
aI41045
aI41146
aI41247
aI41348
aI41449
aI41548
aI41647
aI41744
aI41845
aI41946
aI42043
aI42144
aI42240
aI42342
aI42439
aI42537
aI42634
aI42735
aI42836
aI42933
aI43034
aI43135
aI43236
aI43337
aI43438
aI43538
aI43639
aI43740
aI43840
aI43942
aI44043
aI44145
aI44246
aI44347
aI44449
aI44548
aI44649
aI44750
aI44851
aI44952
aI45053
aI45155
aI45256
aI45357
aI45458
aI45559
aI45660
aI45761
aI45861
aI45962
aI46063
aI46164
aI46265
aI46366
aI46467
aI46568
aI46669
aI46769
aI46870
aI46971
aI47072
aI47173
aI47274
aI47375
aI47475
aI47576
aI47677
aI47778
aI47879
aI47976
aI48077
aI48174
aI48274
aI48375
aI48476
aI48577
aI48678
aI48779
aI48880
aI48981
aI49082
aI49182
aI49283
aI49384
aI49485
aI49586
aI49687
aI49788
aI49889
aI49990
aI50090
aI50191
aI50292
as.