(dp0
S'explorations'
p1
ccopy_reg
_reconstructor
p2
(cdqn_utils
PiecewiseSchedule
p3
c__builtin__
object
p4
Ntp5
Rp6
(dp7
S'_interpolation'
p8
cdqn_utils
linear_interpolation
p9
sS'_outside_value'
p10
F0.01
sS'_endpoints'
p11
(lp12
(I0
F0.2
tp13
a(F1000000.0
F0.1
tp14
a(F5000000.0
F0.01
tp15
asbsS'best_mean_rewards'
p16
(lp17
cnumpy.core.multiarray
scalar
p18
(cnumpy
dtype
p19
(S'f8'
p20
I0
I1
tp21
Rp22
(I3
S'<'
p23
NNNI-1
I-1
I0
tp24
bS'\xf8\xca\xbc\xd8z\xd4\x9f?'
p25
tp26
Rp27
ag27
ag27
ag27
ag27
ag27
ag27
ag27
ag27
ag27
ag18
(g22
S'\x8d\xce\xbbp\xe92\xa4?'
p28
tp29
Rp30
ag30
ag30
ag30
ag30
asS'learning_rates'
p31
(lp32
F0.0001
aF0.0001
aF0.0001
aF0.0001
aF0.0001
aF0.0001
aF0.0001
aF0.0001
aF0.0001
aF0.0001
aF0.0001
aF0.0001
aF0.0001
aF0.0001
aF0.0001
asS'mean_rewards'
p33
(lp34
g18
(g22
S'\xfc\x8d\x86\x8a\xbb1\x90?'
p35
tp36
Rp37
ag18
(g22
S'\x9fs\xbe\xa2\xa47k?'
p38
tp39
Rp40
ag18
(g22
S'\xd4W*\x04\xe3\x94t?'
p41
tp42
Rp43
ag18
(g22
S'WI\xaf\xa1\xd4\xd6\x91?'
p44
tp45
Rp46
ag18
(g22
S'S\xf2Y\x975\x8av?'
p47
tp48
Rp49
ag18
(g22
S'\x9aP\x83\xfa%b\x92?'
p50
tp51
Rp52
ag18
(g22
S'\xdd\xb2\x94\x95\xfd\xd3t\xbf'
p53
tp54
Rp55
ag18
(g22
S'\xd7\x17\x9f\xeb\xf2\x99_\xbf'
p56
tp57
Rp58
ag18
(g22
S'\xcd\xac=\r\xff\xc7!\xbf'
p59
tp60
Rp61
ag18
(g22
S'\xcc\xf6E\xf7M\xe0a?'
p62
tp63
Rp64
ag18
(g22
S'\x12\xc4\x92\xe2\xf1\r\x9f?'
p65
tp66
Rp67
ag18
(g22
S'\r\xc8\xb4\xd9\xdfF~?'
p68
tp69
Rp70
ag18
(g22
S'\\\x1e\xd8\xcb-\xa5\x97?'
p71
tp72
Rp73
ag18
(g22
S'\xac\x01\x91\xa8\x02\xf3x?'
p74
tp75
Rp76
ag18
(g22
S'\xf4"[dB\xcdp?'
p77
tp78
Rp79
asS'ts'
p80
(lp81
I60000
aI70000
aI80000
aI90000
aI100000
aI110000
aI120000
aI130000
aI140000
aI150000
aI160000
aI170000
aI180000
aI190000
aI200000
asS'episodes'
p82
(lp83
I606
aI707
aI809
aI910
aI1011
aI1112
aI1213
aI1314
aI1415
aI1516
aI1616
aI1717
aI1817
aI1918
aI2020
as.