(dp0
S'explorations'
p1
ccopy_reg
_reconstructor
p2
(cdqn_utils
PiecewiseSchedule
p3
c__builtin__
object
p4
Ntp5
Rp6
(dp7
S'_interpolation'
p8
cdqn_utils
linear_interpolation
p9
sS'_outside_value'
p10
F0.01
sS'_endpoints'
p11
(lp12
(I0
F0.2
tp13
a(F1000000.0
F0.1
tp14
a(F5000000.0
F0.01
tp15
asbsS'best_mean_rewards'
p16
(lp17
cnumpy.core.multiarray
scalar
p18
(cnumpy
dtype
p19
(S'f8'
p20
I0
I1
tp21
Rp22
(I3
S'<'
p23
NNNI-1
I-1
I0
tp24
bS'\xf8\xca\xbc\xd8z\xd4\x9f?'
p25
tp26
Rp27
ag27
ag27
ag27
ag27
ag27
ag27
ag27
ag27
ag27
ag18
(g22
S'\x8d\xce\xbbp\xe92\xa4?'
p28
tp29
Rp30
ag30
ag30
ag30
ag30
ag30
ag18
(g22
S'\x1b\xd2`\x84\xb8\xd7\xa4?'
p31
tp32
Rp33
ag33
ag33
ag33
ag33
ag33
ag33
ag33
ag33
ag33
ag33
ag33
ag33
ag33
ag33
ag33
ag33
ag33
ag33
ag33
ag33
ag33
ag33
ag33
ag33
ag33
ag33
ag33
ag33
ag33
ag33
ag33
ag33
ag33
ag33
ag33
ag33
ag33
ag33
ag33
ag33
ag33
ag33
ag33
ag33
ag33
ag33
ag33
ag33
ag33
ag33
ag33
ag33
ag33
ag33
ag33
ag33
ag33
ag33
ag33
ag33
ag33
ag33
ag33
ag33
ag33
ag33
ag33
ag33
ag18
(g22
S'D9\rV\x96\x8f\xa7?'
p34
tp35
Rp36
ag36
ag36
ag36
ag36
ag36
ag18
(g22
S'\xd1\x13\xb6\x8bz2\xa8?'
p37
tp38
Rp39
ag39
ag39
ag39
ag39
ag39
ag39
ag39
ag39
ag39
ag39
ag39
ag39
ag39
ag39
ag39
ag39
ag39
ag39
ag39
ag39
ag39
ag39
ag39
ag39
ag39
ag39
ag39
ag39
ag39
ag39
ag39
ag39
ag39
ag39
ag39
ag39
ag39
ag39
ag39
ag18
(g22
S'\xbb\x0f]\x95\xady\xac?'
p40
tp41
Rp42
ag18
(g22
S'\xac\xc7@\xa78\xd8\xad?'
p43
tp44
Rp45
ag45
ag45
ag45
ag45
ag45
ag45
ag45
ag45
ag45
ag45
ag45
ag45
ag45
ag45
ag45
ag45
ag45
ag45
ag45
ag45
ag45
ag45
asS'learning_rates'
p46
(lp47
F0.0001
aF0.0001
aF0.0001
aF0.0001
aF0.0001
aF0.0001
aF0.0001
aF0.0001
aF0.0001
aF0.0001
aF0.0001
aF0.0001
aF0.0001
aF0.0001
aF0.0001
aF0.0001
aF0.0001
aF0.0001
aF0.0001
aF0.0001
aF0.0001
aF0.0001
aF0.0001
aF0.0001
aF0.0001
aF0.0001
aF0.0001
aF0.0001
aF0.0001
aF0.0001
aF0.0001
aF0.0001
aF0.0001
aF0.0001
aF0.0001
aF0.0001
aF0.0001
aF0.0001
aF0.0001
aF0.0001
aF0.0001
aF0.0001
aF0.0001
aF0.0001
aF0.0001
aF0.0001
aF0.0001
aF0.0001
aF0.0001
aF0.0001
aF0.0001
aF0.0001
aF0.0001
aF0.0001
aF0.0001
aF0.0001
aF0.0001
aF0.0001
aF0.0001
aF0.0001
aF0.0001
aF0.0001
aF0.0001
aF0.0001
aF0.0001
aF0.0001
aF0.0001
aF0.0001
aF0.0001
aF0.0001
aF0.0001
aF0.0001
aF0.0001
aF0.0001
aF0.0001
aF0.0001
aF0.0001
aF0.0001
aF0.0001
aF0.0001
aF0.0001
aF0.0001
aF0.0001
aF0.0001
aF0.0001
aF0.0001
aF0.0001
aF0.0001
aF0.0001
aF0.0001
aF0.0001
aF0.0001
aF0.0001
aF0.0001
aF0.0001
aF9.9875e-05
aF9.975e-05
aF9.962500000000001e-05
aF9.95e-05
aF9.9375e-05
aF9.925e-05
aF9.912500000000001e-05
aF9.900000000000001e-05
aF9.8875e-05
aF9.875e-05
aF9.8625e-05
aF9.850000000000001e-05
aF9.8375e-05
aF9.825e-05
aF9.8125e-05
aF9.800000000000001e-05
aF9.787500000000001e-05
aF9.775e-05
aF9.7625e-05
aF9.75e-05
aF9.737500000000001e-05
aF9.725e-05
aF9.7125e-05
aF9.7e-05
aF9.687500000000001e-05
aF9.675000000000001e-05
aF9.6625e-05
aF9.65e-05
aF9.6375e-05
aF9.625000000000001e-05
aF9.6125e-05
aF9.6e-05
aF9.5875e-05
aF9.575000000000001e-05
aF9.562500000000001e-05
aF9.55e-05
aF9.5375e-05
aF9.525000000000001e-05
aF9.512500000000001e-05
aF9.5e-05
aF9.4875e-05
aF9.475e-05
aF9.462500000000001e-05
aF9.45e-05
aF9.4375e-05
aF9.425e-05
aF9.412500000000001e-05
aF9.400000000000001e-05
aF9.3875e-05
aF9.375e-05
aF9.3625e-05
aF9.350000000000001e-05
aF9.3375e-05
aF9.325e-05
aF9.3125e-05
aF9.300000000000001e-05
aF9.287500000000001e-05
aF9.275e-05
aF9.2625e-05
aF9.25e-05
asS'mean_rewards'
p48
(lp49
g18
(g22
S'\xfc\x8d\x86\x8a\xbb1\x90?'
p50
tp51
Rp52
ag18
(g22
S'\x9fs\xbe\xa2\xa47k?'
p53
tp54
Rp55
ag18
(g22
S'\xd4W*\x04\xe3\x94t?'
p56
tp57
Rp58
ag18
(g22
S'WI\xaf\xa1\xd4\xd6\x91?'
p59
tp60
Rp61
ag18
(g22
S'S\xf2Y\x975\x8av?'
p62
tp63
Rp64
ag18
(g22
S'\x9aP\x83\xfa%b\x92?'
p65
tp66
Rp67
ag18
(g22
S'\xdd\xb2\x94\x95\xfd\xd3t\xbf'
p68
tp69
Rp70
ag18
(g22
S'\xd7\x17\x9f\xeb\xf2\x99_\xbf'
p71
tp72
Rp73
ag18
(g22
S'\xcd\xac=\r\xff\xc7!\xbf'
p74
tp75
Rp76
ag18
(g22
S'\xcc\xf6E\xf7M\xe0a?'
p77
tp78
Rp79
ag18
(g22
S'\x12\xc4\x92\xe2\xf1\r\x9f?'
p80
tp81
Rp82
ag18
(g22
S'\r\xc8\xb4\xd9\xdfF~?'
p83
tp84
Rp85
ag18
(g22
S'\\\x1e\xd8\xcb-\xa5\x97?'
p86
tp87
Rp88
ag18
(g22
S'\xac\x01\x91\xa8\x02\xf3x?'
p89
tp90
Rp91
ag18
(g22
S'\xf4"[dB\xcdp?'
p92
tp93
Rp94
ag18
(g22
S'\x04)\x8d\xfeS&o\xbf'
p95
tp96
Rp97
ag18
(g22
S's\x10\x05C9\x08\x9e?'
p98
tp99
Rp100
ag18
(g22
S'\\\xbe\x8d\x9d\x00\xf5_\xbf'
p101
tp102
Rp103
ag18
(g22
S'\xad\x1a;4\x139v\xbf'
p104
tp105
Rp106
ag18
(g22
S'\xd6\xa0\xcb\x03\x17I\x88?'
p107
tp108
Rp109
ag18
(g22
S'\xe0\x98]!D\\\x9b?'
p110
tp111
Rp112
ag18
(g22
S'\xbd\x15\xfdS\xf7\xd7\x95?'
p113
tp114
Rp115
ag18
(g22
S'C\x94\xa1\xd2\nj\x80?'
p116
tp117
Rp118
ag18
(g22
S'\xd7]\xf8\x89Ig\x8f?'
p119
tp120
Rp121
ag18
(g22
S'qSJ\xf2\xeb\x811\xbf'
p122
tp123
Rp124
ag18
(g22
S'!\xf0VX\xeesb\xbf'
p125
tp126
Rp127
ag18
(g22
S'w\xcf\x9c\xe3\xe7\x84\x83?'
p128
tp129
Rp130
ag18
(g22
S'\x92\xa2.\xf0\xdd=\x86?'
p131
tp132
Rp133
ag18
(g22
S'\xb2\xbe^\xb1`"z?'
p134
tp135
Rp136
ag18
(g22
S'\xb7Z\xcf\xc5=\xc7`\xbf'
p137
tp138
Rp139
ag18
(g22
S'\xc8\xcc\x86\xb3t:\x89?'
p140
tp141
Rp142
ag18
(g22
S'\xc8O\xc8\xc0\x8d;s?'
p143
tp144
Rp145
ag18
(g22
S'\xd6\x80\x13\xb8\xf7\xa9\x7f?'
p146
tp147
Rp148
ag18
(g22
S'(\xaf\x8a\xfe\xb5\x1ep\xbf'
p149
tp150
Rp151
ag18
(g22
S'z\x0c\xc8\x98i\xb8}?'
p152
tp153
Rp154
ag18
(g22
S'\ty`\xcc\t\xc8|?'
p155
tp156
Rp157
ag18
(g22
S'\xe1~\xc6\tOd\x86?'
p158
tp159
Rp160
ag18
(g22
S'E\xf6v\xf9\xf7\x08h\xbf'
p161
tp162
Rp163
ag18
(g22
S'\xe3\xcc\xe0\x06\x10\xb5\x82?'
p164
tp165
Rp166
ag18
(g22
S'nF\x19\xa4\x0e\x98\x8a?'
p167
tp168
Rp169
ag18
(g22
S'\x9c}\x80H{A\x88?'
p170
tp171
Rp172
ag18
(g22
S'\xb6\x12\xb2f\xb5|\x7f?'
p173
tp174
Rp175
ag18
(g22
S'\xa3\xe0\x13b\xb4\x19l\xbf'
p176
tp177
Rp178
ag18
(g22
S'\xb2A\x13M\x92\x97\x8b?'
p179
tp180
Rp181
ag18
(g22
S'H/V\xde\xdd\xf1\x82?'
p182
tp183
Rp184
ag18
(g22
S'\xb2\x17y\x88\x82/i\xbf'
p185
tp186
Rp187
ag18
(g22
S'\x8f\x1c\xa7\x08J\xa4P\xbf'
p188
tp189
Rp190
ag18
(g22
S'\x859\xa8_\x90\x1e\x8f?'
p191
tp192
Rp193
ag18
(g22
S'wxI\xd7s\xdc\x96?'
p194
tp195
Rp196
ag18
(g22
S'x\x1f]m\xc3\xb4v?'
p197
tp198
Rp199
ag18
(g22
S'\x8e\xf0}\xe7\xbc<u?'
p200
tp201
Rp202
ag18
(g22
S'\x8d\x8f(o\x81\xa2w?'
p203
tp204
Rp205
ag18
(g22
S'\x14\x17\xfa\x9d?\xea#?'
p206
tp207
Rp208
ag18
(g22
S'\xa9Z\x18\x14\xdb*$\xbf'
p209
tp210
Rp211
ag18
(g22
S'\xc6\xeb\xc3{A\x03\x9f?'
p212
tp213
Rp214
ag18
(g22
S'E\x92\x9f\xbdN\x8c\x8a?'
p215
tp216
Rp217
ag18
(g22
S'\x8c\xe7\xb8\xf6\x88\xf3w?'
p218
tp219
Rp220
ag18
(g22
S'\n\x17\xb3\x82\xb2\xfei\xbf'
p221
tp222
Rp223
ag18
(g22
S'\xda\x87\x11Gx\x95}?'
p224
tp225
Rp226
ag18
(g22
S'A\x19\xff\x06\x17C\x94?'
p227
tp228
Rp229
ag18
(g22
S'Xn\xfe\xf6\xcc\x87r?'
p230
tp231
Rp232
ag18
(g22
S'\xf8\xb2\x93\xf3\xed\xa4\x88?'
p233
tp234
Rp235
ag18
(g22
S'2\xe8\xbc\xc9\xa3Z\x8a?'
p236
tp237
Rp238
ag18
(g22
S'\xda\x9bqa\x94+\x90?'
p239
tp240
Rp241
ag18
(g22
S'\x00\xac\xfe\xb3~\xc1\x96?'
p242
tp243
Rp244
ag18
(g22
S'\x13*a\xc2GN\x8b?'
p245
tp246
Rp247
ag18
(g22
S'=f$^Dio?'
p248
tp249
Rp250
ag18
(g22
S'\x96Aq\x90\x1c\xe4`\xbf'
p251
tp252
Rp253
ag18
(g22
S'\x1fB\xa02\x9e\x14e\xbf'
p254
tp255
Rp256
ag18
(g22
S'mV\xb9V5A\x96?'
p257
tp258
Rp259
ag18
(g22
S'\x9b\xe8H\xe3:CO?'
p260
tp261
Rp262
ag18
(g22
S'\x16\xcc \rB\x92\x91?'
p263
tp264
Rp265
ag18
(g22
S'\x8f\x8a\x81v?h\x8c?'
p266
tp267
Rp268
ag18
(g22
S'\x05\x89B8\xde\x98\x85?'
p269
tp270
Rp271
ag18
(g22
S'\x1a\xc4\x00\x85\xf8%c?'
p272
tp273
Rp274
ag18
(g22
S'\x08\xedE>4Cc\xbf'
p275
tp276
Rp277
ag18
(g22
S'\xe9\xf1\x17B"hy?'
p278
tp279
Rp280
ag18
(g22
S'\xb7\xb3\xc9\xf4\xa5$\x88?'
p281
tp282
Rp283
ag18
(g22
S'Mx\xe8\x07\x00\xb7w?'
p284
tp285
Rp286
ag18
(g22
S'\x0e\xa4\x81\xc5\x968\x81?'
p287
tp288
Rp289
ag18
(g22
S'\x9a\xc4\x8f\x04\xcc\xc46\xbf'
p290
tp291
Rp292
ag18
(g22
S"\x9c\xe9MV\xc8'm?"
p293
tp294
Rp295
ag18
(g22
S'\x16!8\xe8\xe0\x1e\x8a?'
p296
tp297
Rp298
ag18
(g22
S'\xa1t\x90\xf5\xe8\xf7\x92?'
p299
tp300
Rp301
ag18
(g22
S'\xae\xfaLZ#\n\x94?'
p302
tp303
Rp304
ag18
(g22
S'\\=\x04U\xe9\xda\xa3?'
p305
tp306
Rp307
ag18
(g22
S'R\xf4\xda\xd0:\x12\x8c?'
p308
tp309
Rp310
ag18
(g22
S'\xc8\xc2/\x80\xec\xeeH?'
p311
tp312
Rp313
ag18
(g22
S'\x00\xf3>\xfb3\xbf\x9c?'
p314
tp315
Rp316
ag18
(g22
S'\x13\xb9{\xcaC\x97d\xbf'
p317
tp318
Rp319
ag18
(g22
S'\xb3Do}\x02\xd7\x9f?'
p320
tp321
Rp322
ag18
(g22
S'\xe1\x87\xd5\x01\xd1\x93\x9a?'
p323
tp324
Rp325
ag18
(g22
S'\x909\x8b\xe4v\xfbP\xbf'
p326
tp327
Rp328
ag18
(g22
S'=\x0c\xda\x07\xa3\x8eX\xbf'
p329
tp330
Rp331
ag18
(g22
S'|p$\xfb\xd6\x90\x8d?'
p332
tp333
Rp334
ag18
(g22
S'\x84\xe5f\xfa\x83\xb9a?'
p335
tp336
Rp337
ag18
(g22
S'\xe5w\xa1+\xec\x8fk?'
p338
tp339
Rp340
ag18
(g22
S'\x88 -\xdd^f\x91?'
p341
tp342
Rp343
ag18
(g22
S'\xac:C\xd4o \x96?'
p344
tp345
Rp346
ag18
(g22
S'XM\x87\xaalxt\xbf'
p347
tp348
Rp349
ag18
(g22
S'\xd7/\xf6\xe6\xb96\x9e?'
p350
tp351
Rp352
ag18
(g22
S'\xbe\xaf)\xdc\x9eBb\xbf'
p353
tp354
Rp355
ag18
(g22
S'\xdf,M\x8d\xd7\x12\x8d?'
p356
tp357
Rp358
ag18
(g22
S'\xd2\x81\x17\x107m\x80?'
p359
tp360
Rp361
ag18
(g22
S'\x83\xa0lFy\xf9\x7f?'
p362
tp363
Rp364
ag18
(g22
S'M\x993\xcb\x15ve\xbf'
p365
tp366
Rp367
ag18
(g22
S']\xcc\x05a\xe5M^\xbf'
p368
tp369
Rp370
ag18
(g22
S'\x1f\xf2\xd7\x0cz\x15\x94?'
p371
tp372
Rp373
ag18
(g22
S'A\xa8\xb1\xc83\xe2Y?'
p374
tp375
Rp376
ag18
(g22
S'\xcacP\x9e+z\x86?'
p377
tp378
Rp379
ag18
(g22
S'/\x99b\xc8X\x90\x80?'
p380
tp381
Rp382
ag18
(g22
S'!\xd6\r\x1f\r\xc2e?'
p383
tp384
Rp385
ag18
(g22
S'\x83\xbc9\xb1~\xb2\x81\xbf'
p386
tp387
Rp388
ag18
(g22
S'\xfb\x98\xb4\x05\xc1\x82\x9a?'
p389
tp390
Rp391
ag18
(g22
S'\x0c\xa0|#H\x96\x86?'
p392
tp393
Rp394
ag18
(g22
S'v\xaf\xc26\x0b\xf8\x8d?'
p395
tp396
Rp397
ag18
(g22
S'\x85[k\xca\x85D\x91?'
p398
tp399
Rp400
ag18
(g22
S'\xa7\xa4yN\x08\xf7\x83?'
p401
tp402
Rp403
ag18
(g22
S'\xee>\xc4\x87\xccy{?'
p404
tp405
Rp406
ag18
(g22
S"\x8d\xaa0'\xfev\x91?"
p407
tp408
Rp409
ag18
(g22
S'H\xe5\x97h[\xa1>?'
p410
tp411
Rp412
ag18
(g22
S'\xec\xd6\x07\x95\xfb\\O?'
p413
tp414
Rp415
ag18
(g22
S'\xec\x12\n\xe2\x93\x00m?'
p416
tp417
Rp418
ag18
(g22
S'\xda\x1d\x98\xfe#WY\xbf'
p419
tp420
Rp421
ag18
(g22
S'\xfdf\x9d\x1e\x1e\x0c\x9a?'
p422
tp423
Rp424
ag18
(g22
S'8\xaa\x12S\xd5\xed\x93?'
p425
tp426
Rp427
ag18
(g22
S'(\xdb\xd1\n\x1e\x8bz?'
p428
tp429
Rp430
ag18
(g22
S';\x83\xd3\n]\xe4\x89?'
p431
tp432
Rp433
ag18
(g22
S'%\xad\xc6\xfcS)\x8f?'
p434
tp435
Rp436
ag18
(g22
S'\x1f.\x0cB\xf6\x96y?'
p437
tp438
Rp439
ag18
(g22
S'\xbbd&v\x87\xab\x97?'
p440
tp441
Rp442
ag18
(g22
S'\x94j\xb8\x10\xc5\xac\x9f?'
p443
tp444
Rp445
ag18
(g22
S'\xea\x02\xed\x82\x05\x81\xab?'
p446
tp447
Rp448
ag18
(g22
S'\x94\xf8\x0f%tp~?'
p449
tp450
Rp451
ag18
(g22
S'LN\xdfz\t\x1d\x91?'
p452
tp453
Rp454
ag18
(g22
S'\xb1\xab\xd0\xda[\x1bl\xbf'
p455
tp456
Rp457
ag18
(g22
S':\x86}*\x8f\x1b\x85?'
p458
tp459
Rp460
ag18
(g22
S'\xd8_\x10o\xe1\x07\x99?'
p461
tp462
Rp463
ag18
(g22
S'\xeb\x1a\r\x0c\xac\x9a\x81?'
p464
tp465
Rp466
ag18
(g22
S'\x1f\x94\x99Gt\xa0\x82?'
p467
tp468
Rp469
ag18
(g22
S'C\xdf\x93\xf2\x8d\xf1w\xbf'
p470
tp471
Rp472
ag18
(g22
S'Q\x08\x18\x8a\xbd\x9er?'
p473
tp474
Rp475
ag18
(g22
S'\xb7\xd1\xc5b-\xec\x82?'
p476
tp477
Rp478
ag18
(g22
S'OG\xadE\x065\x92?'
p479
tp480
Rp481
ag18
(g22
S'\xc1&\xcf\\d%\x8e?'
p482
tp483
Rp484
ag18
(g22
S'\x94\xa9\x1c\x90\xb3Y\x9c?'
p485
tp486
Rp487
ag18
(g22
S'\xc1\x10\xbe\x81\x9a\x1ew?'
p488
tp489
Rp490
ag18
(g22
S'\x84\x01\x90\xcc\xe5\xc6c\xbf'
p491
tp492
Rp493
ag18
(g22
S'x\xd4\xe4\x13\xdc\xaf\x8c?'
p494
tp495
Rp496
ag18
(g22
S'\xc5\xa9\x12\x99M\xcc\x84?'
p497
tp498
Rp499
ag18
(g22
S'1\x02\x9f1\xca3\x8a?'
p500
tp501
Rp502
ag18
(g22
S',\x93;\xb24\x1co\xbf'
p503
tp504
Rp505
ag18
(g22
S'\xf7(\x9c\xa5\x13\x12\x8d?'
p506
tp507
Rp508
ag18
(g22
S',!\xd3/9\xfb\x81?'
p509
tp510
Rp511
ag18
(g22
S'NLh5h\x12\x81?'
p512
tp513
Rp514
asS'ts'
p515
(lp516
I60000
aI70000
aI80000
aI90000
aI100000
aI110000
aI120000
aI130000
aI140000
aI150000
aI160000
aI170000
aI180000
aI190000
aI200000
aI210000
aI220000
aI230000
aI240000
aI250000
aI260000
aI270000
aI280000
aI290000
aI300000
aI310000
aI320000
aI330000
aI340000
aI350000
aI360000
aI370000
aI380000
aI390000
aI400000
aI410000
aI420000
aI430000
aI440000
aI450000
aI460000
aI470000
aI480000
aI490000
aI500000
aI510000
aI520000
aI530000
aI540000
aI550000
aI560000
aI570000
aI580000
aI590000
aI600000
aI610000
aI620000
aI630000
aI640000
aI650000
aI660000
aI670000
aI680000
aI690000
aI700000
aI710000
aI720000
aI730000
aI740000
aI750000
aI760000
aI770000
aI780000
aI790000
aI800000
aI810000
aI820000
aI830000
aI840000
aI850000
aI860000
aI870000
aI880000
aI890000
aI900000
aI910000
aI920000
aI930000
aI940000
aI950000
aI960000
aI970000
aI980000
aI990000
aI1000000
aI1010000
aI1020000
aI1030000
aI1040000
aI1050000
aI1060000
aI1070000
aI1080000
aI1090000
aI1100000
aI1110000
aI1120000
aI1130000
aI1140000
aI1150000
aI1160000
aI1170000
aI1180000
aI1190000
aI1200000
aI1210000
aI1220000
aI1230000
aI1240000
aI1250000
aI1260000
aI1270000
aI1280000
aI1290000
aI1300000
aI1310000
aI1320000
aI1330000
aI1340000
aI1350000
aI1360000
aI1370000
aI1380000
aI1390000
aI1400000
aI1410000
aI1420000
aI1430000
aI1440000
aI1450000
aI1460000
aI1470000
aI1480000
aI1490000
aI1500000
aI1510000
aI1520000
aI1530000
aI1540000
aI1550000
aI1560000
aI1570000
aI1580000
aI1590000
aI1600000
asS'episodes'
p517
(lp518
I606
aI707
aI809
aI910
aI1011
aI1112
aI1213
aI1314
aI1415
aI1516
aI1616
aI1717
aI1817
aI1918
aI2020
aI2121
aI2223
aI2324
aI2425
aI2526
aI2626
aI2726
aI2827
aI2928
aI3029
aI3130
aI3231
aI3332
aI3433
aI3534
aI3636
aI3737
aI3838
aI3939
aI4040
aI4141
aI4242
aI4343
aI4443
aI4544
aI4645
aI4746
aI4847
aI4949
aI5050
aI5151
aI5252
aI5353
aI5454
aI5554
aI5655
aI5756
aI5857
aI5958
aI6060
aI6161
aI6262
aI6363
aI6464
aI6564
aI6665
aI6766
aI6867
aI6969
aI7070
aI7171
aI7271
aI7372
aI7473
aI7573
aI7674
aI7774
aI7875
aI7975
aI8076
aI8177
aI8278
aI8379
aI8480
aI8581
aI8682
aI8783
aI8884
aI8985
aI9085
aI9185
aI9286
aI9387
aI9487
aI9588
aI9687
aI9785
aI9886
aI9987
aI10088
aI10189
aI10290
aI10391
aI10491
aI10592
aI10692
aI10793
aI10890
aI10987
aI11087
aI11188
aI11289
aI11390
aI11491
aI11591
aI11692
aI11793
aI11894
aI11994
aI12094
aI12195
aI12296
aI12396
aI12497
aI12598
aI12699
aI12800
aI12901
aI13002
aI13101
aI13201
aI13301
aI13402
aI13503
aI13603
aI13704
aI13805
aI13905
aI14006
aI14106
aI14207
aI14308
aI14408
aI14510
aI14611
aI14712
aI14813
aI14914
aI15014
aI15115
aI15216
aI15317
aI15418
aI15518
aI15619
aI15720
aI15821
aI15922
aI16023
aI16124
as.