(dp0
S'explorations'
p1
ccopy_reg
_reconstructor
p2
(cdqn_utils
PiecewiseSchedule
p3
c__builtin__
object
p4
Ntp5
Rp6
(dp7
S'_interpolation'
p8
cdqn_utils
linear_interpolation
p9
sS'_outside_value'
p10
F0.01
sS'_endpoints'
p11
(lp12
(I0
F0.2
tp13
a(F1000000.0
F0.1
tp14
a(F5000000.0
F0.01
tp15
asbsS'best_mean_rewards'
p16
(lp17
cnumpy.core.multiarray
scalar
p18
(cnumpy
dtype
p19
(S'f8'
p20
I0
I1
tp21
Rp22
(I3
S'<'
p23
NNNI-1
I-1
I0
tp24
bS'\xf8\xca\xbc\xd8z\xd4\x9f?'
p25
tp26
Rp27
ag27
ag27
ag27
ag27
ag27
ag27
ag27
ag27
ag27
ag18
(g22
S'\x8d\xce\xbbp\xe92\xa4?'
p28
tp29
Rp30
ag30
ag30
ag30
ag30
ag30
ag18
(g22
S'\x1b\xd2`\x84\xb8\xd7\xa4?'
p31
tp32
Rp33
ag33
ag33
ag33
ag33
ag33
ag33
ag33
ag33
ag33
ag33
ag33
ag33
ag33
ag33
ag33
ag33
ag33
ag33
ag33
ag33
ag33
ag33
ag33
ag33
ag33
ag33
ag33
ag33
ag33
ag33
ag33
ag33
ag33
ag33
ag33
ag33
ag33
ag33
ag33
ag33
ag33
ag33
ag33
ag33
ag33
ag33
ag33
ag33
ag33
ag33
ag33
ag33
ag33
ag33
ag33
ag33
ag33
ag33
asS'learning_rates'
p34
(lp35
F0.0001
aF0.0001
aF0.0001
aF0.0001
aF0.0001
aF0.0001
aF0.0001
aF0.0001
aF0.0001
aF0.0001
aF0.0001
aF0.0001
aF0.0001
aF0.0001
aF0.0001
aF0.0001
aF0.0001
aF0.0001
aF0.0001
aF0.0001
aF0.0001
aF0.0001
aF0.0001
aF0.0001
aF0.0001
aF0.0001
aF0.0001
aF0.0001
aF0.0001
aF0.0001
aF0.0001
aF0.0001
aF0.0001
aF0.0001
aF0.0001
aF0.0001
aF0.0001
aF0.0001
aF0.0001
aF0.0001
aF0.0001
aF0.0001
aF0.0001
aF0.0001
aF0.0001
aF0.0001
aF0.0001
aF0.0001
aF0.0001
aF0.0001
aF0.0001
aF0.0001
aF0.0001
aF0.0001
aF0.0001
aF0.0001
aF0.0001
aF0.0001
aF0.0001
aF0.0001
aF0.0001
aF0.0001
aF0.0001
aF0.0001
aF0.0001
aF0.0001
aF0.0001
aF0.0001
aF0.0001
aF0.0001
aF0.0001
aF0.0001
aF0.0001
aF0.0001
aF0.0001
asS'mean_rewards'
p36
(lp37
g18
(g22
S'\xfc\x8d\x86\x8a\xbb1\x90?'
p38
tp39
Rp40
ag18
(g22
S'\x9fs\xbe\xa2\xa47k?'
p41
tp42
Rp43
ag18
(g22
S'\xd4W*\x04\xe3\x94t?'
p44
tp45
Rp46
ag18
(g22
S'WI\xaf\xa1\xd4\xd6\x91?'
p47
tp48
Rp49
ag18
(g22
S'S\xf2Y\x975\x8av?'
p50
tp51
Rp52
ag18
(g22
S'\x9aP\x83\xfa%b\x92?'
p53
tp54
Rp55
ag18
(g22
S'\xdd\xb2\x94\x95\xfd\xd3t\xbf'
p56
tp57
Rp58
ag18
(g22
S'\xd7\x17\x9f\xeb\xf2\x99_\xbf'
p59
tp60
Rp61
ag18
(g22
S'\xcd\xac=\r\xff\xc7!\xbf'
p62
tp63
Rp64
ag18
(g22
S'\xcc\xf6E\xf7M\xe0a?'
p65
tp66
Rp67
ag18
(g22
S'\x12\xc4\x92\xe2\xf1\r\x9f?'
p68
tp69
Rp70
ag18
(g22
S'\r\xc8\xb4\xd9\xdfF~?'
p71
tp72
Rp73
ag18
(g22
S'\\\x1e\xd8\xcb-\xa5\x97?'
p74
tp75
Rp76
ag18
(g22
S'\xac\x01\x91\xa8\x02\xf3x?'
p77
tp78
Rp79
ag18
(g22
S'\xf4"[dB\xcdp?'
p80
tp81
Rp82
ag18
(g22
S'\x04)\x8d\xfeS&o\xbf'
p83
tp84
Rp85
ag18
(g22
S's\x10\x05C9\x08\x9e?'
p86
tp87
Rp88
ag18
(g22
S'\\\xbe\x8d\x9d\x00\xf5_\xbf'
p89
tp90
Rp91
ag18
(g22
S'\xad\x1a;4\x139v\xbf'
p92
tp93
Rp94
ag18
(g22
S'\xd6\xa0\xcb\x03\x17I\x88?'
p95
tp96
Rp97
ag18
(g22
S'\xe0\x98]!D\\\x9b?'
p98
tp99
Rp100
ag18
(g22
S'\xbd\x15\xfdS\xf7\xd7\x95?'
p101
tp102
Rp103
ag18
(g22
S'C\x94\xa1\xd2\nj\x80?'
p104
tp105
Rp106
ag18
(g22
S'\xd7]\xf8\x89Ig\x8f?'
p107
tp108
Rp109
ag18
(g22
S'qSJ\xf2\xeb\x811\xbf'
p110
tp111
Rp112
ag18
(g22
S'!\xf0VX\xeesb\xbf'
p113
tp114
Rp115
ag18
(g22
S'w\xcf\x9c\xe3\xe7\x84\x83?'
p116
tp117
Rp118
ag18
(g22
S'\x92\xa2.\xf0\xdd=\x86?'
p119
tp120
Rp121
ag18
(g22
S'\xb2\xbe^\xb1`"z?'
p122
tp123
Rp124
ag18
(g22
S'\xb7Z\xcf\xc5=\xc7`\xbf'
p125
tp126
Rp127
ag18
(g22
S'\xc8\xcc\x86\xb3t:\x89?'
p128
tp129
Rp130
ag18
(g22
S'\xc8O\xc8\xc0\x8d;s?'
p131
tp132
Rp133
ag18
(g22
S'\xd6\x80\x13\xb8\xf7\xa9\x7f?'
p134
tp135
Rp136
ag18
(g22
S'(\xaf\x8a\xfe\xb5\x1ep\xbf'
p137
tp138
Rp139
ag18
(g22
S'z\x0c\xc8\x98i\xb8}?'
p140
tp141
Rp142
ag18
(g22
S'\ty`\xcc\t\xc8|?'
p143
tp144
Rp145
ag18
(g22
S'\xe1~\xc6\tOd\x86?'
p146
tp147
Rp148
ag18
(g22
S'E\xf6v\xf9\xf7\x08h\xbf'
p149
tp150
Rp151
ag18
(g22
S'\xe3\xcc\xe0\x06\x10\xb5\x82?'
p152
tp153
Rp154
ag18
(g22
S'nF\x19\xa4\x0e\x98\x8a?'
p155
tp156
Rp157
ag18
(g22
S'\x9c}\x80H{A\x88?'
p158
tp159
Rp160
ag18
(g22
S'\xb6\x12\xb2f\xb5|\x7f?'
p161
tp162
Rp163
ag18
(g22
S'\xa3\xe0\x13b\xb4\x19l\xbf'
p164
tp165
Rp166
ag18
(g22
S'\xb2A\x13M\x92\x97\x8b?'
p167
tp168
Rp169
ag18
(g22
S'H/V\xde\xdd\xf1\x82?'
p170
tp171
Rp172
ag18
(g22
S'\xb2\x17y\x88\x82/i\xbf'
p173
tp174
Rp175
ag18
(g22
S'\x8f\x1c\xa7\x08J\xa4P\xbf'
p176
tp177
Rp178
ag18
(g22
S'\x859\xa8_\x90\x1e\x8f?'
p179
tp180
Rp181
ag18
(g22
S'wxI\xd7s\xdc\x96?'
p182
tp183
Rp184
ag18
(g22
S'x\x1f]m\xc3\xb4v?'
p185
tp186
Rp187
ag18
(g22
S'\x8e\xf0}\xe7\xbc<u?'
p188
tp189
Rp190
ag18
(g22
S'\x8d\x8f(o\x81\xa2w?'
p191
tp192
Rp193
ag18
(g22
S'\x14\x17\xfa\x9d?\xea#?'
p194
tp195
Rp196
ag18
(g22
S'\xa9Z\x18\x14\xdb*$\xbf'
p197
tp198
Rp199
ag18
(g22
S'\xc6\xeb\xc3{A\x03\x9f?'
p200
tp201
Rp202
ag18
(g22
S'E\x92\x9f\xbdN\x8c\x8a?'
p203
tp204
Rp205
ag18
(g22
S'\x8c\xe7\xb8\xf6\x88\xf3w?'
p206
tp207
Rp208
ag18
(g22
S'\n\x17\xb3\x82\xb2\xfei\xbf'
p209
tp210
Rp211
ag18
(g22
S'\xda\x87\x11Gx\x95}?'
p212
tp213
Rp214
ag18
(g22
S'A\x19\xff\x06\x17C\x94?'
p215
tp216
Rp217
ag18
(g22
S'Xn\xfe\xf6\xcc\x87r?'
p218
tp219
Rp220
ag18
(g22
S'\xf8\xb2\x93\xf3\xed\xa4\x88?'
p221
tp222
Rp223
ag18
(g22
S'2\xe8\xbc\xc9\xa3Z\x8a?'
p224
tp225
Rp226
ag18
(g22
S'\xda\x9bqa\x94+\x90?'
p227
tp228
Rp229
ag18
(g22
S'\x00\xac\xfe\xb3~\xc1\x96?'
p230
tp231
Rp232
ag18
(g22
S'\x13*a\xc2GN\x8b?'
p233
tp234
Rp235
ag18
(g22
S'=f$^Dio?'
p236
tp237
Rp238
ag18
(g22
S'\x96Aq\x90\x1c\xe4`\xbf'
p239
tp240
Rp241
ag18
(g22
S'\x1fB\xa02\x9e\x14e\xbf'
p242
tp243
Rp244
ag18
(g22
S'mV\xb9V5A\x96?'
p245
tp246
Rp247
ag18
(g22
S'\x9b\xe8H\xe3:CO?'
p248
tp249
Rp250
ag18
(g22
S'\x16\xcc \rB\x92\x91?'
p251
tp252
Rp253
ag18
(g22
S'\x8f\x8a\x81v?h\x8c?'
p254
tp255
Rp256
ag18
(g22
S'\x05\x89B8\xde\x98\x85?'
p257
tp258
Rp259
ag18
(g22
S'\x1a\xc4\x00\x85\xf8%c?'
p260
tp261
Rp262
asS'ts'
p263
(lp264
I60000
aI70000
aI80000
aI90000
aI100000
aI110000
aI120000
aI130000
aI140000
aI150000
aI160000
aI170000
aI180000
aI190000
aI200000
aI210000
aI220000
aI230000
aI240000
aI250000
aI260000
aI270000
aI280000
aI290000
aI300000
aI310000
aI320000
aI330000
aI340000
aI350000
aI360000
aI370000
aI380000
aI390000
aI400000
aI410000
aI420000
aI430000
aI440000
aI450000
aI460000
aI470000
aI480000
aI490000
aI500000
aI510000
aI520000
aI530000
aI540000
aI550000
aI560000
aI570000
aI580000
aI590000
aI600000
aI610000
aI620000
aI630000
aI640000
aI650000
aI660000
aI670000
aI680000
aI690000
aI700000
aI710000
aI720000
aI730000
aI740000
aI750000
aI760000
aI770000
aI780000
aI790000
aI800000
asS'episodes'
p265
(lp266
I606
aI707
aI809
aI910
aI1011
aI1112
aI1213
aI1314
aI1415
aI1516
aI1616
aI1717
aI1817
aI1918
aI2020
aI2121
aI2223
aI2324
aI2425
aI2526
aI2626
aI2726
aI2827
aI2928
aI3029
aI3130
aI3231
aI3332
aI3433
aI3534
aI3636
aI3737
aI3838
aI3939
aI4040
aI4141
aI4242
aI4343
aI4443
aI4544
aI4645
aI4746
aI4847
aI4949
aI5050
aI5151
aI5252
aI5353
aI5454
aI5554
aI5655
aI5756
aI5857
aI5958
aI6060
aI6161
aI6262
aI6363
aI6464
aI6564
aI6665
aI6766
aI6867
aI6969
aI7070
aI7171
aI7271
aI7372
aI7473
aI7573
aI7674
aI7774
aI7875
aI7975
aI8076
as.