(dp0
S'explorations'
p1
ccopy_reg
_reconstructor
p2
(cdqn_utils
PiecewiseSchedule
p3
c__builtin__
object
p4
Ntp5
Rp6
(dp7
S'_interpolation'
p8
cdqn_utils
linear_interpolation
p9
sS'_outside_value'
p10
F0.01
sS'_endpoints'
p11
(lp12
(I0
F0.2
tp13
a(F1000000.0
F0.1
tp14
a(F5000000.0
F0.01
tp15
asbsS'best_mean_rewards'
p16
(lp17
cnumpy.core.multiarray
scalar
p18
(cnumpy
dtype
p19
(S'f8'
p20
I0
I1
tp21
Rp22
(I3
S'<'
p23
NNNI-1
I-1
I0
tp24
bS'\xf8\xca\xbc\xd8z\xd4\x9f?'
p25
tp26
Rp27
ag27
ag27
ag27
ag27
ag27
ag27
ag27
ag27
ag27
ag18
(g22
S'\x8d\xce\xbbp\xe92\xa4?'
p28
tp29
Rp30
ag30
ag30
ag30
ag30
ag30
ag18
(g22
S'\x1b\xd2`\x84\xb8\xd7\xa4?'
p31
tp32
Rp33
ag33
ag33
ag33
ag33
ag33
ag33
ag33
ag33
ag33
ag33
ag33
ag33
ag33
ag33
ag33
ag33
ag33
ag33
asS'learning_rates'
p34
(lp35
F0.0001
aF0.0001
aF0.0001
aF0.0001
aF0.0001
aF0.0001
aF0.0001
aF0.0001
aF0.0001
aF0.0001
aF0.0001
aF0.0001
aF0.0001
aF0.0001
aF0.0001
aF0.0001
aF0.0001
aF0.0001
aF0.0001
aF0.0001
aF0.0001
aF0.0001
aF0.0001
aF0.0001
aF0.0001
aF0.0001
aF0.0001
aF0.0001
aF0.0001
aF0.0001
aF0.0001
aF0.0001
aF0.0001
aF0.0001
aF0.0001
asS'mean_rewards'
p36
(lp37
g18
(g22
S'\xfc\x8d\x86\x8a\xbb1\x90?'
p38
tp39
Rp40
ag18
(g22
S'\x9fs\xbe\xa2\xa47k?'
p41
tp42
Rp43
ag18
(g22
S'\xd4W*\x04\xe3\x94t?'
p44
tp45
Rp46
ag18
(g22
S'WI\xaf\xa1\xd4\xd6\x91?'
p47
tp48
Rp49
ag18
(g22
S'S\xf2Y\x975\x8av?'
p50
tp51
Rp52
ag18
(g22
S'\x9aP\x83\xfa%b\x92?'
p53
tp54
Rp55
ag18
(g22
S'\xdd\xb2\x94\x95\xfd\xd3t\xbf'
p56
tp57
Rp58
ag18
(g22
S'\xd7\x17\x9f\xeb\xf2\x99_\xbf'
p59
tp60
Rp61
ag18
(g22
S'\xcd\xac=\r\xff\xc7!\xbf'
p62
tp63
Rp64
ag18
(g22
S'\xcc\xf6E\xf7M\xe0a?'
p65
tp66
Rp67
ag18
(g22
S'\x12\xc4\x92\xe2\xf1\r\x9f?'
p68
tp69
Rp70
ag18
(g22
S'\r\xc8\xb4\xd9\xdfF~?'
p71
tp72
Rp73
ag18
(g22
S'\\\x1e\xd8\xcb-\xa5\x97?'
p74
tp75
Rp76
ag18
(g22
S'\xac\x01\x91\xa8\x02\xf3x?'
p77
tp78
Rp79
ag18
(g22
S'\xf4"[dB\xcdp?'
p80
tp81
Rp82
ag18
(g22
S'\x04)\x8d\xfeS&o\xbf'
p83
tp84
Rp85
ag18
(g22
S's\x10\x05C9\x08\x9e?'
p86
tp87
Rp88
ag18
(g22
S'\\\xbe\x8d\x9d\x00\xf5_\xbf'
p89
tp90
Rp91
ag18
(g22
S'\xad\x1a;4\x139v\xbf'
p92
tp93
Rp94
ag18
(g22
S'\xd6\xa0\xcb\x03\x17I\x88?'
p95
tp96
Rp97
ag18
(g22
S'\xe0\x98]!D\\\x9b?'
p98
tp99
Rp100
ag18
(g22
S'\xbd\x15\xfdS\xf7\xd7\x95?'
p101
tp102
Rp103
ag18
(g22
S'C\x94\xa1\xd2\nj\x80?'
p104
tp105
Rp106
ag18
(g22
S'\xd7]\xf8\x89Ig\x8f?'
p107
tp108
Rp109
ag18
(g22
S'qSJ\xf2\xeb\x811\xbf'
p110
tp111
Rp112
ag18
(g22
S'!\xf0VX\xeesb\xbf'
p113
tp114
Rp115
ag18
(g22
S'w\xcf\x9c\xe3\xe7\x84\x83?'
p116
tp117
Rp118
ag18
(g22
S'\x92\xa2.\xf0\xdd=\x86?'
p119
tp120
Rp121
ag18
(g22
S'\xb2\xbe^\xb1`"z?'
p122
tp123
Rp124
ag18
(g22
S'\xb7Z\xcf\xc5=\xc7`\xbf'
p125
tp126
Rp127
ag18
(g22
S'\xc8\xcc\x86\xb3t:\x89?'
p128
tp129
Rp130
ag18
(g22
S'\xc8O\xc8\xc0\x8d;s?'
p131
tp132
Rp133
ag18
(g22
S'\xd6\x80\x13\xb8\xf7\xa9\x7f?'
p134
tp135
Rp136
ag18
(g22
S'(\xaf\x8a\xfe\xb5\x1ep\xbf'
p137
tp138
Rp139
ag18
(g22
S'z\x0c\xc8\x98i\xb8}?'
p140
tp141
Rp142
asS'ts'
p143
(lp144
I60000
aI70000
aI80000
aI90000
aI100000
aI110000
aI120000
aI130000
aI140000
aI150000
aI160000
aI170000
aI180000
aI190000
aI200000
aI210000
aI220000
aI230000
aI240000
aI250000
aI260000
aI270000
aI280000
aI290000
aI300000
aI310000
aI320000
aI330000
aI340000
aI350000
aI360000
aI370000
aI380000
aI390000
aI400000
asS'episodes'
p145
(lp146
I606
aI707
aI809
aI910
aI1011
aI1112
aI1213
aI1314
aI1415
aI1516
aI1616
aI1717
aI1817
aI1918
aI2020
aI2121
aI2223
aI2324
aI2425
aI2526
aI2626
aI2726
aI2827
aI2928
aI3029
aI3130
aI3231
aI3332
aI3433
aI3534
aI3636
aI3737
aI3838
aI3939
aI4040
as.