(dp0
S'explorations'
p1
ccopy_reg
_reconstructor
p2
(cdqn_utils
PiecewiseSchedule
p3
c__builtin__
object
p4
Ntp5
Rp6
(dp7
S'_interpolation'
p8
cdqn_utils
linear_interpolation
p9
sS'_outside_value'
p10
F0.01
sS'_endpoints'
p11
(lp12
(I0
F0.2
tp13
a(F1000000.0
F0.1
tp14
a(F5000000.0
F0.01
tp15
asbsS'best_mean_rewards'
p16
(lp17
cnumpy.core.multiarray
scalar
p18
(cnumpy
dtype
p19
(S'f8'
p20
I0
I1
tp21
Rp22
(I3
S'<'
p23
NNNI-1
I-1
I0
tp24
bS'Z\x8e`\xdaEp\x0e@'
p25
tp26
Rp27
ag27
ag27
ag27
ag18
(g22
S'\x8f\\\xd0}\x8b3\x10@'
p28
tp29
Rp30
ag18
(g22
S'3Z\xce\xff\xaf\xcf\x10@'
p31
tp32
Rp33
ag18
(g22
S'*]\x16D\xb4\xe2\x11@'
p34
tp35
Rp36
ag18
(g22
S'\xbfEt\xa1\x1c\x0c\x12@'
p37
tp38
Rp39
ag18
(g22
S'\xc9\x89|\xc4\x90\xbd\x15@'
p40
tp41
Rp42
ag42
ag42
ag42
ag42
ag42
ag42
ag42
ag42
ag42
ag42
ag42
ag42
ag42
ag42
ag42
ag18
(g22
S'3|)\xc3<\xd1\x16@'
p43
tp44
Rp45
ag45
ag45
ag45
ag45
ag45
ag45
ag45
ag45
ag45
ag45
ag45
ag45
ag45
ag45
ag45
ag45
ag45
ag45
ag45
ag45
ag45
ag45
ag18
(g22
S'D\xa9\xb1\x17Y\x06\x17@'
p46
tp47
Rp48
ag48
ag48
ag48
ag48
ag48
ag48
ag48
asS'learning_rates'
p49
(lp50
F0.0001
aF0.0001
aF0.0001
aF0.0001
aF0.0001
aF0.0001
aF0.0001
aF0.0001
aF0.0001
aF0.0001
aF0.0001
aF0.0001
aF0.0001
aF0.0001
aF0.0001
aF0.0001
aF0.0001
aF0.0001
aF0.0001
aF0.0001
aF0.0001
aF0.0001
aF0.0001
aF0.0001
aF0.0001
aF0.0001
aF0.0001
aF0.0001
aF0.0001
aF0.0001
aF0.0001
aF0.0001
aF0.0001
aF0.0001
aF0.0001
aF0.0001
aF0.0001
aF0.0001
aF0.0001
aF0.0001
aF0.0001
aF0.0001
aF0.0001
aF0.0001
aF0.0001
aF0.0001
aF0.0001
aF0.0001
aF0.0001
aF0.0001
aF0.0001
aF0.0001
aF0.0001
aF0.0001
aF0.0001
asS'mean_rewards'
p51
(lp52
g18
(g22
S'\xcd1)\xcf]\x0b\x01@'
p53
tp54
Rp55
ag18
(g22
S'\x1fg\xe8\x96B\xd9\x04@'
p56
tp57
Rp58
ag18
(g22
S'\xc6\xc2\xe4\xfd\x83u\x07@'
p59
tp60
Rp61
ag18
(g22
S'*\xe5\x19\xa2\x81\x81\x08@'
p62
tp63
Rp64
ag18
(g22
S'\x14\xc5\x87\xf8F\x00\x10@'
p65
tp66
Rp67
ag18
(g22
S'a\xf9\xcc\x14\x1b\xd7\x0f@'
p68
tp69
Rp70
ag18
(g22
S"'\x19\xc7\xfc\xc3\xde\x11@"
p71
tp72
Rp73
ag18
(g22
S'\xdc\x93^\xf3`\xd2\x10@'
p74
tp75
Rp76
ag18
(g22
S'xe\n\xcb\xf6\xea\x14@'
p77
tp78
Rp79
ag18
(g22
S'\xa8|\xd7\xa5\xd2\x1b\x14@'
p80
tp81
Rp82
ag18
(g22
S'"x\xda\x07=\xe8\x13@'
p83
tp84
Rp85
ag18
(g22
S'\xaf\xf3Nd>\xea\x10@'
p86
tp87
Rp88
ag18
(g22
S"Q\x00\x12\x95'@\x14@"
p89
tp90
Rp91
ag18
(g22
S'\xf5e\x8e\xe1\xe2\x95\x13@'
p92
tp93
Rp94
ag18
(g22
S'\xa8\x05h\x8dQx\x14@'
p95
tp96
Rp97
ag18
(g22
S'\x16=\xa7\xd6\xb4j\x14@'
p98
tp99
Rp100
ag18
(g22
S"*\x1dp'\xb3\x91\x14@"
p101
tp102
Rp103
ag18
(g22
S'\xda^z\xd4\xc3\x88\x13@'
p104
tp105
Rp106
ag18
(g22
S'\xa6VU|\xc0\x13\x14@'
p107
tp108
Rp109
ag18
(g22
S'!\x17k\x8c\xac\x1a\x13@'
p110
tp111
Rp112
ag18
(g22
S'\xf4\xfd?IkX\x15@'
p113
tp114
Rp115
ag18
(g22
S'\x99\x1b=\xcc\xfb\x11\x12@'
p116
tp117
Rp118
ag18
(g22
S'\xc3\x80\\\xdc5\xe4\x13@'
p119
tp120
Rp121
ag18
(g22
S'\x97\xa4\x81\x9e\xe8\x88\x15@'
p122
tp123
Rp124
ag18
(g22
S'\x01O\x91\xf0\xa1\xea\x14@'
p125
tp126
Rp127
ag18
(g22
S'\x97\x92\xa2\xdbqu\x13@'
p128
tp129
Rp130
ag18
(g22
S'H\xb0\xf6\x7fP\xf1\x15@'
p131
tp132
Rp133
ag18
(g22
S'*i\xdb\x85\xacO\x14@'
p134
tp135
Rp136
ag18
(g22
S'\x17\x8d\x871kg\x15@'
p137
tp138
Rp139
ag18
(g22
S'\xa9p\xd2\x1e\xe2\xce\x14@'
p140
tp141
Rp142
ag18
(g22
S'J\xb7P\x1b\x8fc\x16@'
p143
tp144
Rp145
ag18
(g22
S'/\xfa@\xd8\x82\xab\x13@'
p146
tp147
Rp148
ag18
(g22
S'\xa9DodK\x1a\x15@'
p149
tp150
Rp151
ag18
(g22
S')\xe9<d2\xe9\x15@'
p152
tp153
Rp154
ag18
(g22
S'3\xd4j\x10P\xbe\x14@'
p155
tp156
Rp157
ag18
(g22
S'\xecTQdR\xe4\x13@'
p158
tp159
Rp160
ag18
(g22
S'\xa6[Y\xff\x00\x99\x14@'
p161
tp162
Rp163
ag18
(g22
S'Q\xa3[#\xab\x92\x15@'
p164
tp165
Rp166
ag18
(g22
S'\xc4N\xbe&&\xd0\x14@'
p167
tp168
Rp169
ag18
(g22
S'\x9d\xce\xc9\x9dW\xb9\x15@'
p170
tp171
Rp172
ag18
(g22
S'\x860\xb2{\x14\xc7\x15@'
p173
tp174
Rp175
ag18
(g22
S'C\x9aI5&\xf5\x12@'
p176
tp177
Rp178
ag18
(g22
S'\xac\x8fB<@\xe8\x14@'
p179
tp180
Rp181
ag18
(g22
S'\xc0\xac\xde\xc1nv\x14@'
p182
tp183
Rp184
ag18
(g22
S'\xd6\xbaB\x81\xd24\x15@'
p185
tp186
Rp187
ag18
(g22
S'@\x1d\xf8\x05\x0e8\x15@'
p188
tp189
Rp190
ag18
(g22
S'\x8fJ\x00\x1d9\x97\x14@'
p191
tp192
Rp193
ag18
(g22
S'D\xa9\xb1\x17Y\x06\x17@'
p194
tp195
Rp196
ag18
(g22
S'\xc1V,P\x06\xa4\x13@'
p197
tp198
Rp199
ag18
(g22
S'I\xa8p\xec\x15\x99\x15@'
p200
tp201
Rp202
ag18
(g22
S'e\xb6#\x8a\x9ei\x16@'
p203
tp204
Rp205
ag18
(g22
S'Fy\xe5\x9f\xb9(\x16@'
p206
tp207
Rp208
ag18
(g22
S'\xbc@v\x80\xdea\x14@'
p209
tp210
Rp211
ag18
(g22
S'\xb7\xc2#\xcb\xe62\x15@'
p212
tp213
Rp214
ag18
(g22
S'\xaaN\xb5\xa8 \xd2\x15@'
p215
tp216
Rp217
asS'ts'
p218
(lp219
I60000
aI70000
aI80000
aI90000
aI100000
aI110000
aI120000
aI130000
aI140000
aI150000
aI160000
aI170000
aI180000
aI190000
aI200000
aI210000
aI220000
aI230000
aI240000
aI250000
aI260000
aI270000
aI280000
aI290000
aI300000
aI310000
aI320000
aI330000
aI340000
aI350000
aI360000
aI370000
aI380000
aI390000
aI400000
aI410000
aI420000
aI430000
aI440000
aI450000
aI460000
aI470000
aI480000
aI490000
aI500000
aI510000
aI520000
aI530000
aI540000
aI550000
aI560000
aI570000
aI580000
aI590000
aI600000
asS'episodes'
p220
(lp221
I461
aI545
aI619
aI681
aI750
aI840
aI942
aI1023
aI1143
aI1271
aI1402
aI1500
aI1607
aI1727
aI1859
aI1982
aI2097
aI2204
aI2315
aI2425
aI2528
aI2632
aI2736
aI2848
aI2954
aI3069
aI3164
aI3242
aI3349
aI3446
aI3546
aI3646
aI3759
aI3876
aI3994
aI4119
aI4231
aI4348
aI4456
aI4572
aI4665
aI4755
aI4866
aI4971
aI5069
aI5178
aI5286
aI5389
aI5505
aI5631
aI5746
aI5857
aI5958
aI6059
aI6163
as.