(dp0
S'explorations'
p1
ccopy_reg
_reconstructor
p2
(cdqn_utils
PiecewiseSchedule
p3
c__builtin__
object
p4
Ntp5
Rp6
(dp7
S'_interpolation'
p8
cdqn_utils
linear_interpolation
p9
sS'_outside_value'
p10
F0.01
sS'_endpoints'
p11
(lp12
(I0
F0.2
tp13
a(F1000000.0
F0.1
tp14
a(F5000000.0
F0.01
tp15
asbsS'best_mean_rewards'
p16
(lp17
cnumpy.core.multiarray
scalar
p18
(cnumpy
dtype
p19
(S'f8'
p20
I0
I1
tp21
Rp22
(I3
S'<'
p23
NNNI-1
I-1
I0
tp24
bS'Z\x8e`\xdaEp\x0e@'
p25
tp26
Rp27
ag27
ag27
ag27
ag18
(g22
S'\x8f\\\xd0}\x8b3\x10@'
p28
tp29
Rp30
ag18
(g22
S'3Z\xce\xff\xaf\xcf\x10@'
p31
tp32
Rp33
ag18
(g22
S'*]\x16D\xb4\xe2\x11@'
p34
tp35
Rp36
ag18
(g22
S'\xbfEt\xa1\x1c\x0c\x12@'
p37
tp38
Rp39
ag18
(g22
S'\xc9\x89|\xc4\x90\xbd\x15@'
p40
tp41
Rp42
ag42
ag42
ag42
ag42
ag42
ag42
asS'learning_rates'
p43
(lp44
F0.0001
aF0.0001
aF0.0001
aF0.0001
aF0.0001
aF0.0001
aF0.0001
aF0.0001
aF0.0001
aF0.0001
aF0.0001
aF0.0001
aF0.0001
aF0.0001
aF0.0001
asS'mean_rewards'
p45
(lp46
g18
(g22
S'\xcd1)\xcf]\x0b\x01@'
p47
tp48
Rp49
ag18
(g22
S'\x1fg\xe8\x96B\xd9\x04@'
p50
tp51
Rp52
ag18
(g22
S'\xc6\xc2\xe4\xfd\x83u\x07@'
p53
tp54
Rp55
ag18
(g22
S'*\xe5\x19\xa2\x81\x81\x08@'
p56
tp57
Rp58
ag18
(g22
S'\x14\xc5\x87\xf8F\x00\x10@'
p59
tp60
Rp61
ag18
(g22
S'a\xf9\xcc\x14\x1b\xd7\x0f@'
p62
tp63
Rp64
ag18
(g22
S"'\x19\xc7\xfc\xc3\xde\x11@"
p65
tp66
Rp67
ag18
(g22
S'\xdc\x93^\xf3`\xd2\x10@'
p68
tp69
Rp70
ag18
(g22
S'xe\n\xcb\xf6\xea\x14@'
p71
tp72
Rp73
ag18
(g22
S'\xa8|\xd7\xa5\xd2\x1b\x14@'
p74
tp75
Rp76
ag18
(g22
S'"x\xda\x07=\xe8\x13@'
p77
tp78
Rp79
ag18
(g22
S'\xaf\xf3Nd>\xea\x10@'
p80
tp81
Rp82
ag18
(g22
S"Q\x00\x12\x95'@\x14@"
p83
tp84
Rp85
ag18
(g22
S'\xf5e\x8e\xe1\xe2\x95\x13@'
p86
tp87
Rp88
ag18
(g22
S'\xa8\x05h\x8dQx\x14@'
p89
tp90
Rp91
asS'ts'
p92
(lp93
I60000
aI70000
aI80000
aI90000
aI100000
aI110000
aI120000
aI130000
aI140000
aI150000
aI160000
aI170000
aI180000
aI190000
aI200000
asS'episodes'
p94
(lp95
I461
aI545
aI619
aI681
aI750
aI840
aI942
aI1023
aI1143
aI1271
aI1402
aI1500
aI1607
aI1727
aI1859
as.