(dp0
S'explorations'
p1
ccopy_reg
_reconstructor
p2
(cdqn_utils
PiecewiseSchedule
p3
c__builtin__
object
p4
Ntp5
Rp6
(dp7
S'_interpolation'
p8
cdqn_utils
linear_interpolation
p9
sS'_outside_value'
p10
F0.01
sS'_endpoints'
p11
(lp12
(I0
F0.2
tp13
a(F1000000.0
F0.1
tp14
a(F5000000.0
F0.01
tp15
asbsS'best_mean_rewards'
p16
(lp17
cnumpy.core.multiarray
scalar
p18
(cnumpy
dtype
p19
(S'f8'
p20
I0
I1
tp21
Rp22
(I3
S'<'
p23
NNNI-1
I-1
I0
tp24
bS'Z\x8e`\xdaEp\x0e@'
p25
tp26
Rp27
ag27
ag27
ag27
ag18
(g22
S'\x8f\\\xd0}\x8b3\x10@'
p28
tp29
Rp30
ag18
(g22
S'3Z\xce\xff\xaf\xcf\x10@'
p31
tp32
Rp33
ag18
(g22
S'*]\x16D\xb4\xe2\x11@'
p34
tp35
Rp36
ag18
(g22
S'\xbfEt\xa1\x1c\x0c\x12@'
p37
tp38
Rp39
ag18
(g22
S'\xc9\x89|\xc4\x90\xbd\x15@'
p40
tp41
Rp42
ag42
ag42
ag42
ag42
ag42
ag42
ag42
ag42
ag42
ag42
ag42
ag42
ag42
ag42
ag42
ag18
(g22
S'3|)\xc3<\xd1\x16@'
p43
tp44
Rp45
ag45
ag45
ag45
ag45
ag45
ag45
ag45
ag45
ag45
ag45
ag45
ag45
ag45
ag45
ag45
ag45
ag45
ag45
ag45
ag45
ag45
ag45
ag18
(g22
S'D\xa9\xb1\x17Y\x06\x17@'
p46
tp47
Rp48
ag48
ag48
ag48
ag48
ag48
ag48
ag48
ag18
(g22
S'E\x1e/\xc0\x1a.\x17@'
p49
tp50
Rp51
ag51
ag51
ag51
ag51
ag51
ag51
ag51
ag51
ag51
ag51
ag51
ag51
ag51
ag51
ag51
ag51
ag51
ag51
ag51
ag51
ag51
ag51
ag51
ag51
ag51
ag51
ag51
ag51
ag51
ag51
ag51
ag18
(g22
S'\x1fE\xcd\xf1\xbbh\x17@'
p52
tp53
Rp54
ag18
(g22
S'\n\x80)\x06j\xd4\x17@'
p55
tp56
Rp57
ag57
ag57
ag57
ag57
ag57
ag57
ag57
ag57
ag57
ag57
ag57
ag57
ag57
ag57
ag57
ag57
ag57
ag57
ag57
ag57
ag57
ag57
ag57
ag57
ag57
ag57
ag57
ag57
ag57
ag57
ag57
ag57
ag57
ag57
ag57
ag57
ag57
ag57
ag57
ag57
ag57
ag57
ag57
ag57
ag57
ag57
ag57
ag57
ag57
ag57
ag57
ag57
ag57
ag57
ag57
ag57
ag57
ag57
ag57
ag57
ag57
ag57
ag57
ag57
ag57
ag57
ag57
ag57
ag57
ag57
ag57
ag57
ag57
ag57
ag57
ag57
ag57
ag57
ag57
ag57
ag57
ag57
ag57
ag57
ag57
ag57
ag57
ag57
ag57
ag57
ag57
ag57
ag57
ag57
ag57
ag57
ag57
ag57
ag57
ag57
ag57
ag57
ag57
ag57
ag57
ag57
ag57
ag57
ag57
ag57
ag57
ag57
ag57
ag57
ag57
ag57
ag57
ag57
ag57
ag57
ag57
ag57
ag57
ag57
ag57
ag57
ag57
ag57
ag57
ag57
ag57
ag57
ag57
ag57
ag57
ag57
ag57
ag57
ag57
ag57
ag57
ag57
ag57
ag57
ag57
ag57
ag57
ag57
ag57
ag57
ag57
ag57
ag57
ag57
ag57
ag57
ag57
ag57
ag57
ag57
ag57
ag57
ag57
ag57
ag57
ag57
ag57
ag57
ag57
ag57
ag57
ag57
ag57
ag57
ag57
ag57
ag57
ag57
ag57
ag57
ag57
ag57
ag57
ag57
ag57
ag57
asS'learning_rates'
p58
(lp59
F0.0001
aF0.0001
aF0.0001
aF0.0001
aF0.0001
aF0.0001
aF0.0001
aF0.0001
aF0.0001
aF0.0001
aF0.0001
aF0.0001
aF0.0001
aF0.0001
aF0.0001
aF0.0001
aF0.0001
aF0.0001
aF0.0001
aF0.0001
aF0.0001
aF0.0001
aF0.0001
aF0.0001
aF0.0001
aF0.0001
aF0.0001
aF0.0001
aF0.0001
aF0.0001
aF0.0001
aF0.0001
aF0.0001
aF0.0001
aF0.0001
aF0.0001
aF0.0001
aF0.0001
aF0.0001
aF0.0001
aF0.0001
aF0.0001
aF0.0001
aF0.0001
aF0.0001
aF0.0001
aF0.0001
aF0.0001
aF0.0001
aF0.0001
aF0.0001
aF0.0001
aF0.0001
aF0.0001
aF0.0001
aF0.0001
aF0.0001
aF0.0001
aF0.0001
aF0.0001
aF0.0001
aF0.0001
aF0.0001
aF0.0001
aF0.0001
aF0.0001
aF0.0001
aF0.0001
aF0.0001
aF0.0001
aF0.0001
aF0.0001
aF0.0001
aF0.0001
aF0.0001
aF0.0001
aF0.0001
aF0.0001
aF0.0001
aF0.0001
aF0.0001
aF0.0001
aF0.0001
aF0.0001
aF0.0001
aF0.0001
aF0.0001
aF0.0001
aF0.0001
aF0.0001
aF0.0001
aF0.0001
aF0.0001
aF0.0001
aF0.0001
aF9.9875e-05
aF9.975e-05
aF9.962500000000001e-05
aF9.95e-05
aF9.9375e-05
aF9.925e-05
aF9.912500000000001e-05
aF9.900000000000001e-05
aF9.8875e-05
aF9.875e-05
aF9.8625e-05
aF9.850000000000001e-05
aF9.8375e-05
aF9.825e-05
aF9.8125e-05
aF9.800000000000001e-05
aF9.787500000000001e-05
aF9.775e-05
aF9.7625e-05
aF9.75e-05
aF9.737500000000001e-05
aF9.725e-05
aF9.7125e-05
aF9.7e-05
aF9.687500000000001e-05
aF9.675000000000001e-05
aF9.6625e-05
aF9.65e-05
aF9.6375e-05
aF9.625000000000001e-05
aF9.6125e-05
aF9.6e-05
aF9.5875e-05
aF9.575000000000001e-05
aF9.562500000000001e-05
aF9.55e-05
aF9.5375e-05
aF9.525000000000001e-05
aF9.512500000000001e-05
aF9.5e-05
aF9.4875e-05
aF9.475e-05
aF9.462500000000001e-05
aF9.45e-05
aF9.4375e-05
aF9.425e-05
aF9.412500000000001e-05
aF9.400000000000001e-05
aF9.3875e-05
aF9.375e-05
aF9.3625e-05
aF9.350000000000001e-05
aF9.3375e-05
aF9.325e-05
aF9.3125e-05
aF9.300000000000001e-05
aF9.287500000000001e-05
aF9.275e-05
aF9.2625e-05
aF9.25e-05
aF9.237500000000001e-05
aF9.225e-05
aF9.2125e-05
aF9.2e-05
aF9.1875e-05
aF9.175000000000001e-05
aF9.1625e-05
aF9.15e-05
aF9.137500000000001e-05
aF9.125000000000001e-05
aF9.1125e-05
aF9.1e-05
aF9.0875e-05
aF9.075000000000001e-05
aF9.062500000000001e-05
aF9.05e-05
aF9.0375e-05
aF9.025e-05
aF9.012500000000001e-05
aF9e-05
aF8.9875e-05
aF8.975e-05
aF8.962500000000001e-05
aF8.950000000000001e-05
aF8.9375e-05
aF8.925e-05
aF8.912500000000001e-05
aF8.900000000000001e-05
aF8.8875e-05
aF8.875e-05
aF8.8625e-05
aF8.850000000000001e-05
aF8.837500000000001e-05
aF8.825e-05
aF8.8125e-05
aF8.8e-05
aF8.787500000000001e-05
aF8.775e-05
aF8.7625e-05
aF8.75e-05
aF8.737500000000001e-05
aF8.725e-05
aF8.7125e-05
aF8.7e-05
aF8.687500000000001e-05
aF8.675000000000001e-05
aF8.6625e-05
aF8.65e-05
aF8.6375e-05
aF8.625000000000001e-05
aF8.6125e-05
aF8.6e-05
aF8.5875e-05
aF8.575000000000001e-05
aF8.562500000000001e-05
aF8.55e-05
aF8.5375e-05
aF8.525000000000001e-05
aF8.512500000000001e-05
aF8.5e-05
aF8.4875e-05
aF8.475e-05
aF8.462500000000001e-05
aF8.450000000000001e-05
aF8.4375e-05
aF8.425e-05
aF8.4125e-05
aF8.400000000000001e-05
aF8.3875e-05
aF8.375e-05
aF8.3625e-05
aF8.35e-05
aF8.337500000000001e-05
aF8.325e-05
aF8.3125e-05
aF8.3e-05
aF8.2875e-05
aF8.275e-05
aF8.2625e-05
aF8.25e-05
aF8.237500000000001e-05
aF8.225000000000001e-05
aF8.2125e-05
aF8.2e-05
aF8.1875e-05
aF8.175000000000001e-05
aF8.1625e-05
aF8.15e-05
aF8.1375e-05
aF8.125e-05
aF8.112500000000001e-05
aF8.1e-05
aF8.0875e-05
aF8.075000000000001e-05
aF8.062500000000001e-05
aF8.05e-05
aF8.0375e-05
aF8.025e-05
aF8.012500000000001e-05
aF8e-05
aF7.9875e-05
aF7.975e-05
aF7.9625e-05
aF7.950000000000001e-05
aF7.9375e-05
aF7.925e-05
aF7.912500000000001e-05
aF7.900000000000001e-05
aF7.8875e-05
aF7.875e-05
aF7.8625e-05
aF7.850000000000001e-05
aF7.837500000000001e-05
aF7.825e-05
aF7.8125e-05
aF7.8e-05
aF7.787500000000001e-05
aF7.775e-05
aF7.7625e-05
aF7.75e-05
asS'mean_rewards'
p60
(lp61
g18
(g22
S'\xcd1)\xcf]\x0b\x01@'
p62
tp63
Rp64
ag18
(g22
S'\x1fg\xe8\x96B\xd9\x04@'
p65
tp66
Rp67
ag18
(g22
S'\xc6\xc2\xe4\xfd\x83u\x07@'
p68
tp69
Rp70
ag18
(g22
S'*\xe5\x19\xa2\x81\x81\x08@'
p71
tp72
Rp73
ag18
(g22
S'\x14\xc5\x87\xf8F\x00\x10@'
p74
tp75
Rp76
ag18
(g22
S'a\xf9\xcc\x14\x1b\xd7\x0f@'
p77
tp78
Rp79
ag18
(g22
S"'\x19\xc7\xfc\xc3\xde\x11@"
p80
tp81
Rp82
ag18
(g22
S'\xdc\x93^\xf3`\xd2\x10@'
p83
tp84
Rp85
ag18
(g22
S'xe\n\xcb\xf6\xea\x14@'
p86
tp87
Rp88
ag18
(g22
S'\xa8|\xd7\xa5\xd2\x1b\x14@'
p89
tp90
Rp91
ag18
(g22
S'"x\xda\x07=\xe8\x13@'
p92
tp93
Rp94
ag18
(g22
S'\xaf\xf3Nd>\xea\x10@'
p95
tp96
Rp97
ag18
(g22
S"Q\x00\x12\x95'@\x14@"
p98
tp99
Rp100
ag18
(g22
S'\xf5e\x8e\xe1\xe2\x95\x13@'
p101
tp102
Rp103
ag18
(g22
S'\xa8\x05h\x8dQx\x14@'
p104
tp105
Rp106
ag18
(g22
S'\x16=\xa7\xd6\xb4j\x14@'
p107
tp108
Rp109
ag18
(g22
S"*\x1dp'\xb3\x91\x14@"
p110
tp111
Rp112
ag18
(g22
S'\xda^z\xd4\xc3\x88\x13@'
p113
tp114
Rp115
ag18
(g22
S'\xa6VU|\xc0\x13\x14@'
p116
tp117
Rp118
ag18
(g22
S'!\x17k\x8c\xac\x1a\x13@'
p119
tp120
Rp121
ag18
(g22
S'\xf4\xfd?IkX\x15@'
p122
tp123
Rp124
ag18
(g22
S'\x99\x1b=\xcc\xfb\x11\x12@'
p125
tp126
Rp127
ag18
(g22
S'\xc3\x80\\\xdc5\xe4\x13@'
p128
tp129
Rp130
ag18
(g22
S'\x97\xa4\x81\x9e\xe8\x88\x15@'
p131
tp132
Rp133
ag18
(g22
S'\x01O\x91\xf0\xa1\xea\x14@'
p134
tp135
Rp136
ag18
(g22
S'\x97\x92\xa2\xdbqu\x13@'
p137
tp138
Rp139
ag18
(g22
S'H\xb0\xf6\x7fP\xf1\x15@'
p140
tp141
Rp142
ag18
(g22
S'*i\xdb\x85\xacO\x14@'
p143
tp144
Rp145
ag18
(g22
S'\x17\x8d\x871kg\x15@'
p146
tp147
Rp148
ag18
(g22
S'\xa9p\xd2\x1e\xe2\xce\x14@'
p149
tp150
Rp151
ag18
(g22
S'J\xb7P\x1b\x8fc\x16@'
p152
tp153
Rp154
ag18
(g22
S'/\xfa@\xd8\x82\xab\x13@'
p155
tp156
Rp157
ag18
(g22
S'\xa9DodK\x1a\x15@'
p158
tp159
Rp160
ag18
(g22
S')\xe9<d2\xe9\x15@'
p161
tp162
Rp163
ag18
(g22
S'3\xd4j\x10P\xbe\x14@'
p164
tp165
Rp166
ag18
(g22
S'\xecTQdR\xe4\x13@'
p167
tp168
Rp169
ag18
(g22
S'\xa6[Y\xff\x00\x99\x14@'
p170
tp171
Rp172
ag18
(g22
S'Q\xa3[#\xab\x92\x15@'
p173
tp174
Rp175
ag18
(g22
S'\xc4N\xbe&&\xd0\x14@'
p176
tp177
Rp178
ag18
(g22
S'\x9d\xce\xc9\x9dW\xb9\x15@'
p179
tp180
Rp181
ag18
(g22
S'\x860\xb2{\x14\xc7\x15@'
p182
tp183
Rp184
ag18
(g22
S'C\x9aI5&\xf5\x12@'
p185
tp186
Rp187
ag18
(g22
S'\xac\x8fB<@\xe8\x14@'
p188
tp189
Rp190
ag18
(g22
S'\xc0\xac\xde\xc1nv\x14@'
p191
tp192
Rp193
ag18
(g22
S'\xd6\xbaB\x81\xd24\x15@'
p194
tp195
Rp196
ag18
(g22
S'@\x1d\xf8\x05\x0e8\x15@'
p197
tp198
Rp199
ag18
(g22
S'\x8fJ\x00\x1d9\x97\x14@'
p200
tp201
Rp202
ag18
(g22
S'D\xa9\xb1\x17Y\x06\x17@'
p203
tp204
Rp205
ag18
(g22
S'\xc1V,P\x06\xa4\x13@'
p206
tp207
Rp208
ag18
(g22
S'I\xa8p\xec\x15\x99\x15@'
p209
tp210
Rp211
ag18
(g22
S'e\xb6#\x8a\x9ei\x16@'
p212
tp213
Rp214
ag18
(g22
S'Fy\xe5\x9f\xb9(\x16@'
p215
tp216
Rp217
ag18
(g22
S'\xbc@v\x80\xdea\x14@'
p218
tp219
Rp220
ag18
(g22
S'\xb7\xc2#\xcb\xe62\x15@'
p221
tp222
Rp223
ag18
(g22
S'\xaaN\xb5\xa8 \xd2\x15@'
p224
tp225
Rp226
ag18
(g22
S'S3\xc5V\xfc\x88\x15@'
p227
tp228
Rp229
ag18
(g22
S',+\xd7\x0fsJ\x15@'
p230
tp231
Rp232
ag18
(g22
S'\x87\xb0\xbe\xdc\xc5\xfa\x13@'
p233
tp234
Rp235
ag18
(g22
S'!\x88=\n\xd20\x14@'
p236
tp237
Rp238
ag18
(g22
S'Dd\xac{\xf5a\x14@'
p239
tp240
Rp241
ag18
(g22
S'\xd6\xc4\x99V\xfa\x00\x15@'
p242
tp243
Rp244
ag18
(g22
S'\r8\xf1\xdb\x0f\xee\x14@'
p245
tp246
Rp247
ag18
(g22
S'I8\xc7+\xd5\xc7\x15@'
p248
tp249
Rp250
ag18
(g22
S'\xdd\xb8\xd3\xee\xa8\xce\x15@'
p251
tp252
Rp253
ag18
(g22
S'\xb0\xa9UBj\xf4\x13@'
p254
tp255
Rp256
ag18
(g22
S'\xaa\x97\xd3\x03z\xab\x12@'
p257
tp258
Rp259
ag18
(g22
S'\xb3\xfa\xdf-w\x06\x15@'
p260
tp261
Rp262
ag18
(g22
S'\x83 \xf5x\xb3\xce\x15@'
p263
tp264
Rp265
ag18
(g22
S'\r_T[T\x96\x13@'
p266
tp267
Rp268
ag18
(g22
S'Q\x0f_\xa98\xfd\x13@'
p269
tp270
Rp271
ag18
(g22
S'\xf2M}\xca\xa9)\x16@'
p272
tp273
Rp274
ag18
(g22
S'co\xa0\xee\xa2\x98\x15@'
p275
tp276
Rp277
ag18
(g22
S'en\x1e8\xc1\x02\x14@'
p278
tp279
Rp280
ag18
(g22
S'h\xd7\xc4\xd7\x85\xc5\x15@'
p281
tp282
Rp283
ag18
(g22
S'\xfc\x97e\xb8\xd9\xbf\x14@'
p284
tp285
Rp286
ag18
(g22
S'\xea\xfe\x98\xa6\x8a\x17\x15@'
p287
tp288
Rp289
ag18
(g22
S'\xa6\xfad~\x1a\xc4\x14@'
p290
tp291
Rp292
ag18
(g22
S'\xbe\xe9\xfd\xfa\x88\xa9\x12@'
p293
tp294
Rp295
ag18
(g22
S'3\xd19\xc7\x01\xf8\x12@'
p296
tp297
Rp298
ag18
(g22
S'\x9c\xa6L\xe7yZ\x15@'
p299
tp300
Rp301
ag18
(g22
S'\xa95\x10\xa6\x90M\x15@'
p302
tp303
Rp304
ag18
(g22
S'\xdd#\xf4n\xe6\xc3\x15@'
p305
tp306
Rp307
ag18
(g22
S'#\x1f\x81\x14\xe2b\x15@'
p308
tp309
Rp310
ag18
(g22
S'\xd0{\xcd\x14\x86\\\x13@'
p311
tp312
Rp313
ag18
(g22
S'\x0bt\x03\xf1\xe3_\x13@'
p314
tp315
Rp316
ag18
(g22
S'R\xdb\x87\xe2\x16\x05\x16@'
p317
tp318
Rp319
ag18
(g22
S'RC\x93\x11"\xe4\x13@'
p320
tp321
Rp322
ag18
(g22
S'\x1fE\xcd\xf1\xbbh\x17@'
p323
tp324
Rp325
ag18
(g22
S'\xef\xbf*w\x1bX\x13@'
p326
tp327
Rp328
ag18
(g22
S'\xbc\xd5\xfa\x8c}\x03\x14@'
p329
tp330
Rp331
ag18
(g22
S'i\xd0i}\xfdc\x15@'
p332
tp333
Rp334
ag18
(g22
S'h\xb1.\xbcs\xb8\x16@'
p335
tp336
Rp337
ag18
(g22
S'\xd5v\xb9\xc7\x87\x8f\x13@'
p338
tp339
Rp340
ag18
(g22
S'\xfbnp|\x8bc\x16@'
p341
tp342
Rp343
ag18
(g22
S'\xb7\xc9\xa8\x05\xa5g\x15@'
p344
tp345
Rp346
ag18
(g22
S'\x03vY\xc5\xe2Q\x14@'
p347
tp348
Rp349
ag18
(g22
S'VuPV\x84&\x16@'
p350
tp351
Rp352
ag18
(g22
S'\xf8!|\xc7#\x00\x16@'
p353
tp354
Rp355
ag18
(g22
S'\xb6+m\xd8\x04\xbc\x15@'
p356
tp357
Rp358
ag18
(g22
S'Jz\xde\xe9\x08\x9a\x16@'
p359
tp360
Rp361
ag18
(g22
S'A\x92e\x91\xee\x9a\x15@'
p362
tp363
Rp364
ag18
(g22
S'\x7fD\x87\x1c<!\x15@'
p365
tp366
Rp367
ag18
(g22
S'\xd9\xef\x90\x94\xae\xca\x13@'
p368
tp369
Rp370
ag18
(g22
S"Q'te\x1b+\x15@"
p371
tp372
Rp373
ag18
(g22
S'F\xa6t<1W\x15@'
p374
tp375
Rp376
ag18
(g22
S'\x87;V\x94,\xd8\x13@'
p377
tp378
Rp379
ag18
(g22
S'\x0f_:\x8b\x93\xf7\x15@'
p380
tp381
Rp382
ag18
(g22
S"q\x0b'\xa8\x04|\x16@"
p383
tp384
Rp385
ag18
(g22
S'#\xe7m\xf2j\x94\x12@'
p386
tp387
Rp388
ag18
(g22
S'\x8a\xd3\x86\xd1\xdc\xc7\x15@'
p389
tp390
Rp391
ag18
(g22
S'\xb3a\x84\\\x96\xe0\x14@'
p392
tp393
Rp394
ag18
(g22
S'$"\x8e\x05\x1aa\x16@'
p395
tp396
Rp397
ag18
(g22
S'\xa6Z\xa2v\x17\xfe\x14@'
p398
tp399
Rp400
ag18
(g22
S'\xe7\x8d\x8b`\xcc\x00\x14@'
p401
tp402
Rp403
ag18
(g22
S'.\x9cb@v7\x15@'
p404
tp405
Rp406
ag18
(g22
S'%\xb9\xca\x81\x88\x8b\x15@'
p407
tp408
Rp409
ag18
(g22
S'Y\xaf\xab\x8d\x954\x14@'
p410
tp411
Rp412
ag18
(g22
S'\t\xe0\xd4\xae\x91T\x15@'
p413
tp414
Rp415
ag18
(g22
S'\x01\xb2\xb2\x95KU\x12@'
p416
tp417
Rp418
ag18
(g22
S'\xe0nrz\xffe\x16@'
p419
tp420
Rp421
ag18
(g22
S'\x9c\xa7S\xe7\xa8\xda\x11@'
p422
tp423
Rp424
ag18
(g22
S'2\x15\x16\x1ap\x96\x14@'
p425
tp426
Rp427
ag18
(g22
S' \xcas\xd1\xa1\xca\x14@'
p428
tp429
Rp430
ag18
(g22
S'\x94\x8b\xfe\xdb\x0f\xfd\x14@'
p431
tp432
Rp433
ag18
(g22
S'V\xc8\x1a(\x82\xfb\x14@'
p434
tp435
Rp436
ag18
(g22
S'\xff\xdek=\xaa\x91\x15@'
p437
tp438
Rp439
ag18
(g22
S'\xb4\xc2"\xff\x18\xf8\x14@'
p440
tp441
Rp442
ag18
(g22
S'\xc1\x81:\xd8\x9c/\x15@'
p443
tp444
Rp445
ag18
(g22
S'\x1e\xa1\xd6\xcbK\xa0\x13@'
p446
tp447
Rp448
ag18
(g22
S'E\x83\xd5T:e\x15@'
p449
tp450
Rp451
ag18
(g22
S'\x16\xc7\xcb\x1e\xa0\xfa\x14@'
p452
tp453
Rp454
ag18
(g22
S'\xec$\xbc~\x8f\xcc\x13@'
p455
tp456
Rp457
ag18
(g22
S'\n\x1f\xfeg\xa91\x15@'
p458
tp459
Rp460
ag18
(g22
S'\xc8\xb1\x99\xd4\xb7\xdc\x13@'
p461
tp462
Rp463
ag18
(g22
S'\x18\x07\xaf\x98K\xdd\x12@'
p464
tp465
Rp466
ag18
(g22
S'\xaa\x8f\xbc\xb3\x8b\x06\x14@'
p467
tp468
Rp469
ag18
(g22
S'\x17p\xbf\xdf\xfd4\x15@'
p470
tp471
Rp472
ag18
(g22
S'\xa9r\xc4\x1d+\xc2\x15@'
p473
tp474
Rp475
ag18
(g22
S'\n\xc5\x1b\xc2\x84W\x12@'
p476
tp477
Rp478
ag18
(g22
S'\x0f\xa9.PyR\x14@'
p479
tp480
Rp481
ag18
(g22
S'/\xd3\xfe\x13[/\x15@'
p482
tp483
Rp484
ag18
(g22
S'\xca!S\xbf\x87e\x15@'
p485
tp486
Rp487
ag18
(g22
S'}\xa5\x95=f\xd9\x12@'
p488
tp489
Rp490
ag18
(g22
S'\x83\xe71\xd1\xff\x11\x14@'
p491
tp492
Rp493
ag18
(g22
S'\xb1Q:\x88O\x98\x14@'
p494
tp495
Rp496
ag18
(g22
S'\x0e\x00\xd5\xe0\xf7\x89\x14@'
p497
tp498
Rp499
ag18
(g22
S'e\x00\xedhT\xf7\x14@'
p500
tp501
Rp502
ag18
(g22
S'u \xc7[QL\x11@'
p503
tp504
Rp505
ag18
(g22
S'<-\x82\x9d\xe0_\x12@'
p506
tp507
Rp508
ag18
(g22
S'\xf37\xaf \x1e\xa3\x13@'
p509
tp510
Rp511
ag18
(g22
S'pI\xeeS@\x1d\x14@'
p512
tp513
Rp514
ag18
(g22
S'wrh \x05G\x15@'
p515
tp516
Rp517
ag18
(g22
S'\x85\xc4~6\xc5\x8e\x15@'
p518
tp519
Rp520
ag18
(g22
S'\xbfb\xbb\xe9I\xd7\x12@'
p521
tp522
Rp523
ag18
(g22
S'\x99\xc0\xd4\x1e\xab\xa6\x13@'
p524
tp525
Rp526
ag18
(g22
S'f\xdaV\xf2\xb0K\x13@'
p527
tp528
Rp529
ag18
(g22
S'\x19?\x88t\xe3\xfe\x12@'
p530
tp531
Rp532
ag18
(g22
S'\xe1uE\xcd&c\x15@'
p533
tp534
Rp535
ag18
(g22
S'\xd7J\x87\x03*\xfc\x14@'
p536
tp537
Rp538
ag18
(g22
S'\xc8%\xd1O:\x15\x12@'
p539
tp540
Rp541
ag18
(g22
S'\x10\x8e\xcd\x15\x82\x87\x12@'
p542
tp543
Rp544
ag18
(g22
S'\xea\xb9K4\x9d.\x15@'
p545
tp546
Rp547
ag18
(g22
S'\x0f\xc4\xe3\xdf\xb7\xf4\x14@'
p548
tp549
Rp550
ag18
(g22
S'\x14E\x14\x8d\xb4\x88\x14@'
p551
tp552
Rp553
ag18
(g22
S'\x92n\xb7b\xb1e\x13@'
p554
tp555
Rp556
ag18
(g22
S'f\xcf\xaf\x8a\xb2\xef\x14@'
p557
tp558
Rp559
ag18
(g22
S'T\x9d\x06yj\x16\x15@'
p560
tp561
Rp562
ag18
(g22
S'!\xbfVJ\x12w\x14@'
p563
tp564
Rp565
ag18
(g22
S'\xa9\x1d\xd4=\xe8W\x13@'
p566
tp567
Rp568
ag18
(g22
S'f\x85\xc3I\x03\xcf\x13@'
p569
tp570
Rp571
ag18
(g22
S'\x14\xa1Z\x86\x17\xc9\x13@'
p572
tp573
Rp574
ag18
(g22
S'?\xf8t\xc3\xf0/\x13@'
p575
tp576
Rp577
ag18
(g22
S'\r\nE\xb5h\xcc\x12@'
p578
tp579
Rp580
ag18
(g22
S'\xd1\xc9\x83@\x12/\x15@'
p581
tp582
Rp583
ag18
(g22
S'48\xaa\xad\x903\x16@'
p584
tp585
Rp586
ag18
(g22
S'\xb0P<\x99ca\x14@'
p587
tp588
Rp589
ag18
(g22
S'\xc6Xt\xabS\x98\x12@'
p590
tp591
Rp592
ag18
(g22
S'\xfd\x1b {\x9d\x8c\x14@'
p593
tp594
Rp595
ag18
(g22
S'\xc8\x92\xc36\x8e\x02\x16@'
p596
tp597
Rp598
ag18
(g22
S'_\xbc\x9d\xd0\xfe\x91\x14@'
p599
tp600
Rp601
ag18
(g22
S'\x96r\xfe\xa8\xd9\xf3\x13@'
p602
tp603
Rp604
ag18
(g22
S'\x1f\xb6A\xb4\xe2#\x14@'
p605
tp606
Rp607
ag18
(g22
S'\xa1\xbc\x16f0F\x12@'
p608
tp609
Rp610
ag18
(g22
S'\xf2\xb1a \x03f\x15@'
p611
tp612
Rp613
ag18
(g22
S'\xb7\xc0\x89\x1cY\x9b\x15@'
p614
tp615
Rp616
ag18
(g22
S't(]\xe26_\x15@'
p617
tp618
Rp619
ag18
(g22
S'\x17\xf6\x7f\xf9\xf7\xcf\x15@'
p620
tp621
Rp622
ag18
(g22
S'ak\xb6\xc9g\xf7\x14@'
p623
tp624
Rp625
ag18
(g22
S'\xbcq\xad\x86\xd0\x8a\x12@'
p626
tp627
Rp628
ag18
(g22
S'Q\xa6\xdf\xb5\x8f_\x10@'
p629
tp630
Rp631
ag18
(g22
S'\xec\x0fD\x82\xf0\x81\x15@'
p632
tp633
Rp634
ag18
(g22
S' _\xfc\x89\xca~\x14@'
p635
tp636
Rp637
ag18
(g22
S'\x03\x14PL\x12\x9a\x14@'
p638
tp639
Rp640
ag18
(g22
S'\x9a\x19\xd1{\xfb\x84\x13@'
p641
tp642
Rp643
ag18
(g22
S'\xb1\xd4C\xdf\xe9\xf6\x12@'
p644
tp645
Rp646
ag18
(g22
S'\xb6\x140\xcb%\x18\x12@'
p647
tp648
Rp649
ag18
(g22
S'|\xf5\xcc\xb2\x9c\xed\x13@'
p650
tp651
Rp652
ag18
(g22
S'\x08o\\\xban\x9b\x15@'
p653
tp654
Rp655
ag18
(g22
S'\xb4\x8f\xf3z\xe3e\x15@'
p656
tp657
Rp658
ag18
(g22
S'\xfb\x8a\xaa\xf2\x9a\r\x13@'
p659
tp660
Rp661
ag18
(g22
S'\xefT\xca\xd6\xd3/\x14@'
p662
tp663
Rp664
ag18
(g22
S'\x86\xd0\xcd\xdf\xde`\x14@'
p665
tp666
Rp667
ag18
(g22
S'\xbc\x95E\xef\xc4\x9b\x15@'
p668
tp669
Rp670
ag18
(g22
S'\x16\x90\xa1\x98-`\x12@'
p671
tp672
Rp673
ag18
(g22
S'\t\rp\xa3\x7f]\x14@'
p674
tp675
Rp676
ag18
(g22
S'\x1d\xc1\x9av\x19\xbb\x14@'
p677
tp678
Rp679
ag18
(g22
S'\xbf\xcc\xaf)\xdd_\x13@'
p680
tp681
Rp682
ag18
(g22
S'\xc9\xed\xc2\xe0\xc7\x17\x15@'
p683
tp684
Rp685
ag18
(g22
S'\x95\x8e\x81\xcd\x04\x8a\x13@'
p686
tp687
Rp688
ag18
(g22
S'j\x9a\x8c\xeb\xd6(\x15@'
p689
tp690
Rp691
ag18
(g22
S'j\x0bW\xd0}\x94\x14@'
p692
tp693
Rp694
ag18
(g22
S'4\xc4(\xc5E\xcf\x13@'
p695
tp696
Rp697
ag18
(g22
S'\xfc\x8f\xa7\xcf4\x98\x13@'
p698
tp699
Rp700
ag18
(g22
S'\x00\x9e\xec\xd9Q\x9a\x12@'
p701
tp702
Rp703
ag18
(g22
S'r/=*\x8c\xb7\x13@'
p704
tp705
Rp706
ag18
(g22
S'\xcdZ\x17\xf7D\xc2\x12@'
p707
tp708
Rp709
ag18
(g22
S'\xffp\x93@\xf4\xcd\x13@'
p710
tp711
Rp712
ag18
(g22
S'\x18fhs\xf7\xf7\x13@'
p713
tp714
Rp715
ag18
(g22
S'\x05\x1d;\x9dJ\xec\x13@'
p716
tp717
Rp718
ag18
(g22
S'\x12>/\x18\xfd\x8b\x16@'
p719
tp720
Rp721
ag18
(g22
S'I\x9a\xa5\xd7e\x8f\x17@'
p722
tp723
Rp724
ag18
(g22
S'\xc8n\x87J\xf24\x15@'
p725
tp726
Rp727
ag18
(g22
S'|.\xc9i\x0f\xfe\x14@'
p728
tp729
Rp730
ag18
(g22
S'o9\x13\x8a\xff\x8c\x15@'
p731
tp732
Rp733
ag18
(g22
S'\xfcdF!s\x03\x16@'
p734
tp735
Rp736
ag18
(g22
S'\xe7\x80\x057\x1ca\x14@'
p737
tp738
Rp739
ag18
(g22
S'lP\xd5\xe1k\xb8\x14@'
p740
tp741
Rp742
ag18
(g22
S'\xe2\xea\xe32\xb9\x93\x13@'
p743
tp744
Rp745
ag18
(g22
S'\x8acKo3\xc5\x14@'
p746
tp747
Rp748
ag18
(g22
S'\xed\x94\xad\xdb\xbf\x88\x15@'
p749
tp750
Rp751
ag18
(g22
S"z\x86\xe2\x934'\x15@"
p752
tp753
Rp754
ag18
(g22
S'W^%*\xe2\xfe\x15@'
p755
tp756
Rp757
ag18
(g22
S'L\xe2\xcc\xfa\x1dX\x15@'
p758
tp759
Rp760
ag18
(g22
S'\xf7&&\x9c\x86\x02\x15@'
p761
tp762
Rp763
ag18
(g22
S']St\xab\xa7\x91\x15@'
p764
tp765
Rp766
ag18
(g22
S'\xa1!f\xf8\xe6\xce\x16@'
p767
tp768
Rp769
ag18
(g22
S'\xff\x9a\xdc\xd2Xx\x15@'
p770
tp771
Rp772
ag18
(g22
S' \xe8\xeb\xac[\x80\x12@'
p773
tp774
Rp775
ag18
(g22
S'\x8a\xbb\xe84=\x05\x16@'
p776
tp777
Rp778
ag18
(g22
S'\x80)]\xe7m(\x15@'
p779
tp780
Rp781
ag18
(g22
S'$e\x15\xae_\x7f\x15@'
p782
tp783
Rp784
ag18
(g22
S'\n\xb6\xc4\x1a\x90\x94\x15@'
p785
tp786
Rp787
ag18
(g22
S'R\x8b\x1c\xe1\xe8\xea\x15@'
p788
tp789
Rp790
ag18
(g22
S'\xd1}\xa8\xc6\xf8\xb6\x14@'
p791
tp792
Rp793
ag18
(g22
S'\xd2BH\x88\r\xc5\x16@'
p794
tp795
Rp796
ag18
(g22
S'\x01V\xa0\xcb\xba\\\x16@'
p797
tp798
Rp799
ag18
(g22
S'\xb4\x06\x02\x8b\xb6}\x15@'
p800
tp801
Rp802
ag18
(g22
S'f\xa2\xce&\x13P\x15@'
p803
tp804
Rp805
ag18
(g22
S'\xf1_\xf7\xeav\xb9\x15@'
p806
tp807
Rp808
ag18
(g22
S'i\xa6ED\n\x9e\x15@'
p809
tp810
Rp811
ag18
(g22
S'*\x18\xbd\xba|\xca\x14@'
p812
tp813
Rp814
ag18
(g22
S"\x83\x1aW'-g\x15@"
p815
tp816
Rp817
ag18
(g22
S'\x81\xc2?\xce\xe9\xfe\x14@'
p818
tp819
Rp820
ag18
(g22
S'%\x03\x99A\x98\x89\x15@'
p821
tp822
Rp823
ag18
(g22
S'S#l:\x8f\xbd\x15@'
p824
tp825
Rp826
ag18
(g22
S'\xfd\x88h\x88\x17a\x15@'
p827
tp828
Rp829
ag18
(g22
S'i\x07\x80J\xaet\x11@'
p830
tp831
Rp832
ag18
(g22
S'\x94\x90\xab3q\x96\x12@'
p833
tp834
Rp835
ag18
(g22
S'\x05q\xea\xe3\xec2\x16@'
p836
tp837
Rp838
ag18
(g22
S'i6\n\x84V\x9d\x14@'
p839
tp840
Rp841
ag18
(g22
S'\xc7-\x15\xc6\xee\xd8\x13@'
p842
tp843
Rp844
ag18
(g22
S'xR\xcfZW\x7f\x15@'
p845
tp846
Rp847
ag18
(g22
S'$\xaeU{\x0c\x16\x13@'
p848
tp849
Rp850
ag18
(g22
S'\xd3\xef\xd9\xdcp\xce\x15@'
p851
tp852
Rp853
ag18
(g22
S'|\x87\xa8\xaaX\xc5\x13@'
p854
tp855
Rp856
ag18
(g22
S'\xdd\xe2r|\xf2\xf2\x14@'
p857
tp858
Rp859
ag18
(g22
S'\xa1\x9e\xaep\x81\xcd\x14@'
p860
tp861
Rp862
ag18
(g22
S'\xf6\xa0\xa7\xeeV\xcb\x15@'
p863
tp864
Rp865
ag18
(g22
S'\x8e\xa4\xfe\xa8p\x98\x14@'
p866
tp867
Rp868
ag18
(g22
S'\xd8\xf2Tma\xf2\x14@'
p869
tp870
Rp871
ag18
(g22
S'\xe1o\xee\xe8\xc3-\x15@'
p872
tp873
Rp874
ag18
(g22
S'\xb1)\xf64\x87\x04\x16@'
p875
tp876
Rp877
ag18
(g22
S'449Av\x1b\x15@'
p878
tp879
Rp880
ag18
(g22
S'\xd4\x93P\xc7<5\x15@'
p881
tp882
Rp883
ag18
(g22
S'\xe6)\xf8\x08c\xae\x13@'
p884
tp885
Rp886
asS'ts'
p887
(lp888
I60000
aI70000
aI80000
aI90000
aI100000
aI110000
aI120000
aI130000
aI140000
aI150000
aI160000
aI170000
aI180000
aI190000
aI200000
aI210000
aI220000
aI230000
aI240000
aI250000
aI260000
aI270000
aI280000
aI290000
aI300000
aI310000
aI320000
aI330000
aI340000
aI350000
aI360000
aI370000
aI380000
aI390000
aI400000
aI410000
aI420000
aI430000
aI440000
aI450000
aI460000
aI470000
aI480000
aI490000
aI500000
aI510000
aI520000
aI530000
aI540000
aI550000
aI560000
aI570000
aI580000
aI590000
aI600000
aI610000
aI620000
aI630000
aI640000
aI650000
aI660000
aI670000
aI680000
aI690000
aI700000
aI710000
aI720000
aI730000
aI740000
aI750000
aI760000
aI770000
aI780000
aI790000
aI800000
aI810000
aI820000
aI830000
aI840000
aI850000
aI860000
aI870000
aI880000
aI890000
aI900000
aI910000
aI920000
aI930000
aI940000
aI950000
aI960000
aI970000
aI980000
aI990000
aI1000000
aI1010000
aI1020000
aI1030000
aI1040000
aI1050000
aI1060000
aI1070000
aI1080000
aI1090000
aI1100000
aI1110000
aI1120000
aI1130000
aI1140000
aI1150000
aI1160000
aI1170000
aI1180000
aI1190000
aI1200000
aI1210000
aI1220000
aI1230000
aI1240000
aI1250000
aI1260000
aI1270000
aI1280000
aI1290000
aI1300000
aI1310000
aI1320000
aI1330000
aI1340000
aI1350000
aI1360000
aI1370000
aI1380000
aI1390000
aI1400000
aI1410000
aI1420000
aI1430000
aI1440000
aI1450000
aI1460000
aI1470000
aI1480000
aI1490000
aI1500000
aI1510000
aI1520000
aI1530000
aI1540000
aI1550000
aI1560000
aI1570000
aI1580000
aI1590000
aI1600000
aI1610000
aI1620000
aI1630000
aI1640000
aI1650000
aI1660000
aI1670000
aI1680000
aI1690000
aI1700000
aI1710000
aI1720000
aI1730000
aI1740000
aI1750000
aI1760000
aI1770000
aI1780000
aI1790000
aI1800000
aI1810000
aI1820000
aI1830000
aI1840000
aI1850000
aI1860000
aI1870000
aI1880000
aI1890000
aI1900000
aI1910000
aI1920000
aI1930000
aI1940000
aI1950000
aI1960000
aI1970000
aI1980000
aI1990000
aI2000000
aI2010000
aI2020000
aI2030000
aI2040000
aI2050000
aI2060000
aI2070000
aI2080000
aI2090000
aI2100000
aI2110000
aI2120000
aI2130000
aI2140000
aI2150000
aI2160000
aI2170000
aI2180000
aI2190000
aI2200000
aI2210000
aI2220000
aI2230000
aI2240000
aI2250000
aI2260000
aI2270000
aI2280000
aI2290000
aI2300000
aI2310000
aI2320000
aI2330000
aI2340000
aI2350000
aI2360000
aI2370000
aI2380000
aI2390000
aI2400000
aI2410000
aI2420000
aI2430000
aI2440000
aI2450000
aI2460000
aI2470000
aI2480000
aI2490000
aI2500000
aI2510000
aI2520000
aI2530000
aI2540000
aI2550000
aI2560000
aI2570000
aI2580000
aI2590000
aI2600000
aI2610000
aI2620000
aI2630000
aI2640000
aI2650000
aI2660000
aI2670000
aI2680000
aI2690000
aI2700000
aI2710000
aI2720000
aI2730000
aI2740000
aI2750000
aI2760000
aI2770000
aI2780000
aI2790000
aI2800000
asS'episodes'
p889
(lp890
I461
aI545
aI619
aI681
aI750
aI840
aI942
aI1023
aI1143
aI1271
aI1402
aI1500
aI1607
aI1727
aI1859
aI1982
aI2097
aI2204
aI2315
aI2425
aI2528
aI2632
aI2736
aI2848
aI2954
aI3069
aI3164
aI3242
aI3349
aI3446
aI3546
aI3646
aI3759
aI3876
aI3994
aI4119
aI4231
aI4348
aI4456
aI4572
aI4665
aI4755
aI4866
aI4971
aI5069
aI5178
aI5286
aI5389
aI5505
aI5631
aI5746
aI5857
aI5958
aI6059
aI6163
aI6283
aI6384
aI6492
aI6604
aI6715
aI6806
aI6927
aI7036
aI7146
aI7256
aI7365
aI7479
aI7581
aI7688
aI7791
aI7890
aI8000
aI8104
aI8203
aI8271
aI8375
aI8472
aI8567
aI8669
aI8775
aI8867
aI8977
aI9069
aI9172
aI9274
aI9366
aI9457
aI9560
aI9662
aI9761
aI9876
aI9991
aI10079
aI10174
aI10272
aI10367
aI10468
aI10559
aI10657
aI10779
aI10884
aI10990
aI11116
aI11241
aI11347
aI11458
aI11573
aI11668
aI11775
aI11890
aI11998
aI12087
aI12171
aI12268
aI12336
aI12447
aI12548
aI12644
aI12738
aI12824
aI12913
aI13020
aI13119
aI13206
aI13323
aI13435
aI13533
aI13635
aI13743
aI13854
aI13954
aI14052
aI14163
aI14262
aI14355
aI14455
aI14558
aI14660
aI14766
aI14870
aI14965
aI15063
aI15153
aI15244
aI15349
aI15440
aI15513
aI15610
aI15713
aI15788
aI15865
aI15948
aI16029
aI16111
aI16213
aI16324
aI16432
aI16534
aI16640
aI16730
aI16832
aI16930
aI17009
aI17117
aI17222
aI17316
aI17397
aI17474
aI17568
aI17639
aI17706
aI17776
aI17867
aI17968
aI18071
aI18168
aI18253
aI18339
aI18436
aI18546
aI18662
aI18787
aI18899
aI19009
aI19102
aI19212
aI19329
aI19418
aI19529
aI19634
aI19749
aI19856
aI19953
aI20046
aI20135
aI20228
aI20294
aI20389
aI20509
aI20626
aI20736
aI20828
aI20923
aI21034
aI21144
aI21245
aI21336
aI21431
aI21524
aI21632
aI21727
aI21823
aI21931
aI22011
aI22103
aI22174
aI22246
aI22308
aI22395
aI22512
aI22620
aI22724
aI22834
aI22938
aI23046
aI23150
aI23235
aI23359
aI23458
aI23573
aI23695
aI23813
aI23922
aI24031
aI24139
aI24246
aI24351
aI24467
aI24590
aI24701
aI24806
aI24903
aI25004
aI25088
aI25205
aI25296
aI25404
aI25497
aI25592
aI25695
aI25803
aI25928
aI26034
aI26162
aI26276
aI26395
aI26505
aI26612
aI26713
aI26825
aI26912
aI27018
aI27123
aI27225
aI27334
aI27436
aI27530
aI27618
aI27726
aI27829
aI27934
aI28029
aI28136
aI28238
aI28344
as.