(dp0
S'explorations'
p1
ccopy_reg
_reconstructor
p2
(cdqn_utils
PiecewiseSchedule
p3
c__builtin__
object
p4
Ntp5
Rp6
(dp7
S'_interpolation'
p8
cdqn_utils
linear_interpolation
p9
sS'_outside_value'
p10
F0.01
sS'_endpoints'
p11
(lp12
(I0
F0.2
tp13
a(F1000000.0
F0.1
tp14
a(F5000000.0
F0.01
tp15
asbsS'best_mean_rewards'
p16
(lp17
cnumpy.core.multiarray
scalar
p18
(cnumpy
dtype
p19
(S'f8'
p20
I0
I1
tp21
Rp22
(I3
S'<'
p23
NNNI-1
I-1
I0
tp24
bS'n\x08\xd6\x189\x1c\x14@'
p25
tp26
Rp27
ag27
ag27
ag18
(g22
S'\xa7W\x06\xfd\xb3#\x14@'
p28
tp29
Rp30
ag30
ag30
ag18
(g22
S'\r\xb9\xd5\xd1\x0b6\x14@'
p31
tp32
Rp33
ag18
(g22
S'\xb9\xd6\xe5\\^j\x14@'
p34
tp35
Rp36
ag36
ag36
ag18
(g22
S'H\xce2=\xb5l\x14@'
p37
tp38
Rp39
ag39
ag39
ag39
ag39
asS'learning_rates'
p40
(lp41
F0.0001
aF0.0001
aF0.0001
aF0.0001
aF0.0001
aF0.0001
aF0.0001
aF0.0001
aF0.0001
aF0.0001
aF0.0001
aF0.0001
aF0.0001
aF0.0001
aF0.0001
asS'mean_rewards'
p42
(lp43
g18
(g22
S'|\x85\xa6\xfb+\x9f\x13@'
p44
tp45
Rp46
ag18
(g22
S'\xea7h9r:\x13@'
p47
tp48
Rp49
ag18
(g22
S'\x9eyj\xc2\xb7}\x13@'
p50
tp51
Rp52
ag18
(g22
S'\x96\x1c!\x18\x8d\xde\x13@'
p53
tp54
Rp55
ag18
(g22
S'\x0b\xd5\xe4\x88\x1c\xee\x13@'
p56
tp57
Rp58
ag18
(g22
S'\xb8\r\x07P\xab\x8d\x13@'
p59
tp60
Rp61
ag18
(g22
S'\xc7?E_\x0e\xcc\x13@'
p62
tp63
Rp64
ag18
(g22
S'6N\x97\x1f\xe2?\x14@'
p65
tp66
Rp67
ag18
(g22
S'\x9cO\xfe\xe7\xa4\xe9\x13@'
p68
tp69
Rp70
ag18
(g22
S'1\xf2\xf4\x84\\\xc4\x13@'
p71
tp72
Rp73
ag18
(g22
S'4\x1a\xd75[\xa3\x13@'
p74
tp75
Rp76
ag18
(g22
S'\xc1Z\x99\xba\xb9\xdb\x13@'
p77
tp78
Rp79
ag18
(g22
S'\xf1\xb5\xe1\xcc\x1a.\x13@'
p80
tp81
Rp82
ag18
(g22
S'\x13T\x19\xe4\n\x02\x14@'
p83
tp84
Rp85
ag18
(g22
S'\xf5S\x0f\xc3J\x9d\x13@'
p86
tp87
Rp88
asS'ts'
p89
(lp90
I60000
aI70000
aI80000
aI90000
aI100000
aI110000
aI120000
aI130000
aI140000
aI150000
aI160000
aI170000
aI180000
aI190000
aI200000
asS'episodes'
p91
(lp92
I1112
aI1293
aI1486
aI1670
aI1865
aI2059
aI2253
aI2452
aI2639
aI2825
aI3013
aI3203
aI3395
aI3580
aI3759
as.