(dp0
S'explorations'
p1
ccopy_reg
_reconstructor
p2
(cdqn_utils
PiecewiseSchedule
p3
c__builtin__
object
p4
Ntp5
Rp6
(dp7
S'_interpolation'
p8
cdqn_utils
linear_interpolation
p9
sS'_outside_value'
p10
F0.01
sS'_endpoints'
p11
(lp12
(I0
F0.2
tp13
a(F1000000.0
F0.1
tp14
a(F5000000.0
F0.01
tp15
asbsS'best_mean_rewards'
p16
(lp17
cnumpy.core.multiarray
scalar
p18
(cnumpy
dtype
p19
(S'f8'
p20
I0
I1
tp21
Rp22
(I3
S'<'
p23
NNNI-1
I-1
I0
tp24
bS'n\x08\xd6\x189\x1c\x14@'
p25
tp26
Rp27
ag27
ag27
ag18
(g22
S'\xa7W\x06\xfd\xb3#\x14@'
p28
tp29
Rp30
ag30
ag30
ag18
(g22
S'\r\xb9\xd5\xd1\x0b6\x14@'
p31
tp32
Rp33
ag18
(g22
S'\xb9\xd6\xe5\\^j\x14@'
p34
tp35
Rp36
ag36
ag36
ag18
(g22
S'H\xce2=\xb5l\x14@'
p37
tp38
Rp39
ag39
ag39
ag39
ag39
ag18
(g22
S'Z\xbc\x97\xda\x97\xae\x14@'
p40
tp41
Rp42
ag18
(g22
S'\xc8\xa6C\xf4d\xbc\x14@'
p43
tp44
Rp45
ag45
ag45
ag45
ag45
ag45
ag45
ag45
ag45
ag45
ag45
ag45
ag45
ag45
ag45
ag45
ag45
ag45
ag45
ag45
ag45
ag45
ag45
ag45
ag45
ag45
ag45
ag45
ag45
ag45
ag45
ag45
ag45
ag45
ag45
ag45
ag45
ag45
ag45
ag45
ag45
ag45
ag45
ag45
ag45
ag45
ag45
ag45
ag45
ag45
ag45
ag45
ag45
ag45
ag45
ag45
ag45
ag45
ag45
asS'learning_rates'
p46
(lp47
F0.0001
aF0.0001
aF0.0001
aF0.0001
aF0.0001
aF0.0001
aF0.0001
aF0.0001
aF0.0001
aF0.0001
aF0.0001
aF0.0001
aF0.0001
aF0.0001
aF0.0001
aF0.0001
aF0.0001
aF0.0001
aF0.0001
aF0.0001
aF0.0001
aF0.0001
aF0.0001
aF0.0001
aF0.0001
aF0.0001
aF0.0001
aF0.0001
aF0.0001
aF0.0001
aF0.0001
aF0.0001
aF0.0001
aF0.0001
aF0.0001
aF0.0001
aF0.0001
aF0.0001
aF0.0001
aF0.0001
aF0.0001
aF0.0001
aF0.0001
aF0.0001
aF0.0001
aF0.0001
aF0.0001
aF0.0001
aF0.0001
aF0.0001
aF0.0001
aF0.0001
aF0.0001
aF0.0001
aF0.0001
aF0.0001
aF0.0001
aF0.0001
aF0.0001
aF0.0001
aF0.0001
aF0.0001
aF0.0001
aF0.0001
aF0.0001
aF0.0001
aF0.0001
aF0.0001
aF0.0001
aF0.0001
aF0.0001
aF0.0001
aF0.0001
aF0.0001
aF0.0001
asS'mean_rewards'
p48
(lp49
g18
(g22
S'|\x85\xa6\xfb+\x9f\x13@'
p50
tp51
Rp52
ag18
(g22
S'\xea7h9r:\x13@'
p53
tp54
Rp55
ag18
(g22
S'\x9eyj\xc2\xb7}\x13@'
p56
tp57
Rp58
ag18
(g22
S'\x96\x1c!\x18\x8d\xde\x13@'
p59
tp60
Rp61
ag18
(g22
S'\x0b\xd5\xe4\x88\x1c\xee\x13@'
p62
tp63
Rp64
ag18
(g22
S'\xb8\r\x07P\xab\x8d\x13@'
p65
tp66
Rp67
ag18
(g22
S'\xc7?E_\x0e\xcc\x13@'
p68
tp69
Rp70
ag18
(g22
S'6N\x97\x1f\xe2?\x14@'
p71
tp72
Rp73
ag18
(g22
S'\x9cO\xfe\xe7\xa4\xe9\x13@'
p74
tp75
Rp76
ag18
(g22
S'1\xf2\xf4\x84\\\xc4\x13@'
p77
tp78
Rp79
ag18
(g22
S'4\x1a\xd75[\xa3\x13@'
p80
tp81
Rp82
ag18
(g22
S'\xc1Z\x99\xba\xb9\xdb\x13@'
p83
tp84
Rp85
ag18
(g22
S'\xf1\xb5\xe1\xcc\x1a.\x13@'
p86
tp87
Rp88
ag18
(g22
S'\x13T\x19\xe4\n\x02\x14@'
p89
tp90
Rp91
ag18
(g22
S'\xf5S\x0f\xc3J\x9d\x13@'
p92
tp93
Rp94
ag18
(g22
S':\xd0U\xe5i\xa9\x14@'
p95
tp96
Rp97
ag18
(g22
S'\x04OD6\xbe\x92\x13@'
p98
tp99
Rp100
ag18
(g22
S'\xc0\x1e\x89=Yw\x13@'
p101
tp102
Rp103
ag18
(g22
S'=V]\x9eB\n\x14@'
p104
tp105
Rp106
ag18
(g22
S'\xb7\xdd\xdcs\x96n\x13@'
p107
tp108
Rp109
ag18
(g22
S']\x96\xf5\x16H5\x14@'
p110
tp111
Rp112
ag18
(g22
S'\x11\x0ec\xeb\xb5\xff\x13@'
p113
tp114
Rp115
ag18
(g22
S'\x93y1\xee\xb8`\x13@'
p116
tp117
Rp118
ag18
(g22
S'\xfe\x06]\x9b\xed\xad\x13@'
p119
tp120
Rp121
ag18
(g22
S'\xbd\\\x9d\x9d\x95=\x14@'
p122
tp123
Rp124
ag18
(g22
S'\xb6\xac\xe8K\xe4\x00\x14@'
p125
tp126
Rp127
ag18
(g22
S'R\xc5\xf43<\x99\x14@'
p128
tp129
Rp130
ag18
(g22
S'(\xfb\xe0\x07\xa5\xfb\x13@'
p131
tp132
Rp133
ag18
(g22
S'\x0fF\x9e\xb9w\xcf\x13@'
p134
tp135
Rp136
ag18
(g22
S'\x93}oq\x9b\xc8\x13@'
p137
tp138
Rp139
ag18
(g22
S'\xa6\x03\xaf\x7fH\r\x14@'
p140
tp141
Rp142
ag18
(g22
S'\x16\x95(\x0b\xf2a\x14@'
p143
tp144
Rp145
ag18
(g22
S'?\xaeh[\xc5K\x13@'
p146
tp147
Rp148
ag18
(g22
S'L\x8cU\xa3N\xab\x13@'
p149
tp150
Rp151
ag18
(g22
S'J\x1fN\xa1\xe3g\x13@'
p152
tp153
Rp154
ag18
(g22
S'\xba/d\x11!\xad\x13@'
p155
tp156
Rp157
ag18
(g22
S'\xd7\xa2\x92\x03\x14\xa6\x13@'
p158
tp159
Rp160
ag18
(g22
S'\xfa\xccrI\x8c\xf6\x13@'
p161
tp162
Rp163
ag18
(g22
S'\xb3\x03r<\xc9\xda\x13@'
p164
tp165
Rp166
ag18
(g22
S'\x9d\x85OosS\x13@'
p167
tp168
Rp169
ag18
(g22
S'\xb4\xfe\x13%F\xc2\x13@'
p170
tp171
Rp172
ag18
(g22
S'\xb6~\xad}v\x8f\x13@'
p173
tp174
Rp175
ag18
(g22
S'\x0b\xfe\xc2\x9b\xb0r\x13@'
p176
tp177
Rp178
ag18
(g22
S'\xa3\x8e\x1c\xd5\x87\xb7\x13@'
p179
tp180
Rp181
ag18
(g22
S'\xc3~\xfc\xebS\xb4\x13@'
p182
tp183
Rp184
ag18
(g22
S'cu\xd3\x9eG\xf1\x13@'
p185
tp186
Rp187
ag18
(g22
S'\xa5/\x1d\x15\x12\xec\x13@'
p188
tp189
Rp190
ag18
(g22
S'"Q\x04\xd2\x9c\xf8\x13@'
p191
tp192
Rp193
ag18
(g22
S'o\x1ck\xbf z\x13@'
p194
tp195
Rp196
ag18
(g22
S'U\xe7\x9d\x93i\xa1\x13@'
p197
tp198
Rp199
ag18
(g22
S'\xda\x06.\xb1r\xc4\x13@'
p200
tp201
Rp202
ag18
(g22
S'\x93\xc5\t\xce\t^\x13@'
p203
tp204
Rp205
ag18
(g22
S'S\xe0\x05\x14.\x7f\x13@'
p206
tp207
Rp208
ag18
(g22
S'\xed\xc0f\xc5hV\x13@'
p209
tp210
Rp211
ag18
(g22
S'\xd4\xbe\x0f%\x01\x13\x14@'
p212
tp213
Rp214
ag18
(g22
S"\xa5\x004lT'\x13@"
p215
tp216
Rp217
ag18
(g22
S'v\xa8\xbe`0\r\x14@'
p218
tp219
Rp220
ag18
(g22
S'\x9cxx?*\x89\x13@'
p221
tp222
Rp223
ag18
(g22
S'\xdd\xfa\xf2\x99\x91*\x13@'
p224
tp225
Rp226
ag18
(g22
S'&\x82\xb7\r\xfa\xff\x13@'
p227
tp228
Rp229
ag18
(g22
S'h\xb6\xd2\xb0\xe3g\x13@'
p230
tp231
Rp232
ag18
(g22
S'0O\x11\xd0\xe7\xca\x13@'
p233
tp234
Rp235
ag18
(g22
S'\xe3\xf6m\xd2]\xc6\x13@'
p236
tp237
Rp238
ag18
(g22
S'\x16\x92\xf0FcP\x13@'
p239
tp240
Rp241
ag18
(g22
S'\t\xa0*R\x0fz\x13@'
p242
tp243
Rp244
ag18
(g22
S'\x8a\x1dO\xba\x16\xe5\x13@'
p245
tp246
Rp247
ag18
(g22
S'\xbf\xa4\xfaH\xb0\x9f\x13@'
p248
tp249
Rp250
ag18
(g22
S'\xde\xc2M\xd52\x92\x13@'
p251
tp252
Rp253
ag18
(g22
S'\x80#\xa1q1\xbe\x13@'
p254
tp255
Rp256
ag18
(g22
S'\x9c5\xc5\xa6>\x85\x13@'
p257
tp258
Rp259
ag18
(g22
S'\x9d\xab\xb8\xc0\xe9H\x13@'
p260
tp261
Rp262
ag18
(g22
S'\xb9\x875\xc63\xa9\x13@'
p263
tp264
Rp265
ag18
(g22
S'4\xa4\x80\x91s2\x14@'
p266
tp267
Rp268
ag18
(g22
S't\xe1$i*\xc7\x13@'
p269
tp270
Rp271
ag18
(g22
S'Xy*o\xc3\xb7\x13@'
p272
tp273
Rp274
asS'ts'
p275
(lp276
I60000
aI70000
aI80000
aI90000
aI100000
aI110000
aI120000
aI130000
aI140000
aI150000
aI160000
aI170000
aI180000
aI190000
aI200000
aI210000
aI220000
aI230000
aI240000
aI250000
aI260000
aI270000
aI280000
aI290000
aI300000
aI310000
aI320000
aI330000
aI340000
aI350000
aI360000
aI370000
aI380000
aI390000
aI400000
aI410000
aI420000
aI430000
aI440000
aI450000
aI460000
aI470000
aI480000
aI490000
aI500000
aI510000
aI520000
aI530000
aI540000
aI550000
aI560000
aI570000
aI580000
aI590000
aI600000
aI610000
aI620000
aI630000
aI640000
aI650000
aI660000
aI670000
aI680000
aI690000
aI700000
aI710000
aI720000
aI730000
aI740000
aI750000
aI760000
aI770000
aI780000
aI790000
aI800000
asS'episodes'
p277
(lp278
I1112
aI1293
aI1486
aI1670
aI1865
aI2059
aI2253
aI2452
aI2639
aI2825
aI3013
aI3203
aI3395
aI3580
aI3759
aI3935
aI4124
aI4313
aI4511
aI4711
aI4908
aI5095
aI5288
aI5470
aI5656
aI5849
aI6047
aI6242
aI6442
aI6637
aI6836
aI7023
aI7223
aI7420
aI7611
aI7806
aI7996
aI8195
aI8388
aI8586
aI8784
aI8973
aI9168
aI9372
aI9563
aI9761
aI9945
aI10131
aI10327
aI10518
aI10718
aI10908
aI11105
aI11300
aI11501
aI11690
aI11887
aI12077
aI12263
aI12450
aI12642
aI12833
aI13028
aI13210
aI13402
aI13606
aI13800
aI13996
aI14191
aI14392
aI14590
aI14785
aI14979
aI15172
aI15358
as.