(dp0
S'explorations'
p1
ccopy_reg
_reconstructor
p2
(cdqn_utils
PiecewiseSchedule
p3
c__builtin__
object
p4
Ntp5
Rp6
(dp7
S'_interpolation'
p8
cdqn_utils
linear_interpolation
p9
sS'_outside_value'
p10
F0.01
sS'_endpoints'
p11
(lp12
(I0
F0.2
tp13
a(F1000000.0
F0.1
tp14
a(F5000000.0
F0.01
tp15
asbsS'best_mean_rewards'
p16
(lp17
cnumpy.core.multiarray
scalar
p18
(cnumpy
dtype
p19
(S'f8'
p20
I0
I1
tp21
Rp22
(I3
S'<'
p23
NNNI-1
I-1
I0
tp24
bS'W\xc5g\x1b\xbd/\x14@'
p25
tp26
Rp27
ag27
ag27
ag27
ag18
(g22
S'\xc8t}\x95\xa4G\x14@'
p28
tp29
Rp30
ag18
(g22
S'\xa6{\xbf\xf3tn\x14@'
p31
tp32
Rp33
ag33
ag18
(g22
S'\x84\xce\xacj\xffw\x14@'
p34
tp35
Rp36
ag18
(g22
S'\xb7\xdf\xe4N}\x87\x14@'
p37
tp38
Rp39
ag39
ag39
ag39
ag39
ag39
ag18
(g22
S'S\xeeG\xd4w\xa6\x14@'
p40
tp41
Rp42
ag42
ag42
ag42
ag42
ag42
ag42
ag42
ag18
(g22
S'\xcd\xa8@\xa9%\x00\x15@'
p43
tp44
Rp45
ag45
ag45
ag45
ag45
ag45
ag45
ag45
ag45
ag45
ag45
ag45
ag45
asS'learning_rates'
p46
(lp47
F0.0001
aF0.0001
aF0.0001
aF0.0001
aF0.0001
aF0.0001
aF0.0001
aF0.0001
aF0.0001
aF0.0001
aF0.0001
aF0.0001
aF0.0001
aF0.0001
aF0.0001
aF0.0001
aF0.0001
aF0.0001
aF0.0001
aF0.0001
aF0.0001
aF0.0001
aF0.0001
aF0.0001
aF0.0001
aF0.0001
aF0.0001
aF0.0001
aF0.0001
aF0.0001
aF0.0001
aF0.0001
aF0.0001
aF0.0001
aF0.0001
asS'mean_rewards'
p48
(lp49
g18
(g22
S'\x14!\xd7\xf4\xe8\xe5\x12@'
p50
tp51
Rp52
ag18
(g22
S'=\x94h!\xe3\x9e\x13@'
p53
tp54
Rp55
ag18
(g22
S'cV\xf76V\xce\x13@'
p56
tp57
Rp58
ag18
(g22
S'3u\x15#0\xba\x13@'
p59
tp60
Rp61
ag18
(g22
S'\xc8t}\x95\xa4G\x14@'
p62
tp63
Rp64
ag18
(g22
S'>\x8b*\x92_\x96\x13@'
p65
tp66
Rp67
ag18
(g22
S'B\xba\x15\x0c\xd2\x80\x13@'
p68
tp69
Rp70
ag18
(g22
S'\x01\x06Z\xd3\xd7r\x14@'
p71
tp72
Rp73
ag18
(g22
S'\x8b\xda_\x0b)D\x13@'
p74
tp75
Rp76
ag18
(g22
S'\x14QP\xd9\xe3\x1d\x14@'
p77
tp78
Rp79
ag18
(g22
S'\x86\xb7jg\xcf\xd9\x13@'
p80
tp81
Rp82
ag18
(g22
S'C\x1f\x98\xd7\x9c\xcb\x13@'
p83
tp84
Rp85
ag18
(g22
S'\x0f\xf5^ku\xc4\x13@'
p86
tp87
Rp88
ag18
(g22
S'+1\x17\xb6AX\x13@'
p89
tp90
Rp91
ag18
(g22
S'C\xb4\xd6\xce\x14\xb5\x13@'
p92
tp93
Rp94
ag18
(g22
S'5@x\x9f\x04\x9d\x13@'
p95
tp96
Rp97
ag18
(g22
S'U\x9d\xc0\xb6\xdf\xf8\x13@'
p98
tp99
Rp100
ag18
(g22
S'\xaa\x0f~I\x17\x88\x13@'
p101
tp102
Rp103
ag18
(g22
S'tNF\x9d\xee\x0c\x14@'
p104
tp105
Rp106
ag18
(g22
S'\xa5\xae5\xde;#\x14@'
p107
tp108
Rp109
ag18
(g22
S'4\xba\xaaRz\xe8\x13@'
p110
tp111
Rp112
ag18
(g22
S'\x83K\xf0\xcbT\xfa\x13@'
p113
tp114
Rp115
ag18
(g22
S'\x0e\x97\x0c\xf8\xa8B\x14@'
p116
tp117
Rp118
ag18
(g22
S'\xb3\x8a\xb9\xe5B\xff\x13@'
p119
tp120
Rp121
ag18
(g22
S'6,\xab\xdf\xc3\x91\x13@'
p122
tp123
Rp124
ag18
(g22
S'\x93\xa6\x99\x18M\x01\x14@'
p125
tp126
Rp127
ag18
(g22
S'C\x86\xf9\xdf\x8d\xb5\x13@'
p128
tp129
Rp130
ag18
(g22
S'US\xa4\xde\x92\xd6\x13@'
p131
tp132
Rp133
ag18
(g22
S'N\x8d\xac\x9a\xaaL\x14@'
p134
tp135
Rp136
ag18
(g22
S'd\xe3\xcdd^\r\x14@'
p137
tp138
Rp139
ag18
(g22
S'xowg\x17\x82\x13@'
p140
tp141
Rp142
ag18
(g22
S'VS-\x9e-q\x14@'
p143
tp144
Rp145
ag18
(g22
S'\x99k\x0c\xa5@C\x14@'
p146
tp147
Rp148
ag18
(g22
S'X\xc2\x0f4Q@\x14@'
p149
tp150
Rp151
ag18
(g22
S'\xcd\x11\x8b\x96cU\x14@'
p152
tp153
Rp154
asS'ts'
p155
(lp156
I60000
aI70000
aI80000
aI90000
aI100000
aI110000
aI120000
aI130000
aI140000
aI150000
aI160000
aI170000
aI180000
aI190000
aI200000
aI210000
aI220000
aI230000
aI240000
aI250000
aI260000
aI270000
aI280000
aI290000
aI300000
aI310000
aI320000
aI330000
aI340000
aI350000
aI360000
aI370000
aI380000
aI390000
aI400000
asS'episodes'
p157
(lp158
I1076
aI1234
aI1422
aI1625
aI1817
aI2019
aI2221
aI2416
aI2620
aI2812
aI3007
aI3203
aI3402
aI3598
aI3803
aI3997
aI4206
aI4404
aI4605
aI4813
aI5011
aI5214
aI5417
aI5627
aI5832
aI6027
aI6242
aI6455
aI6665
aI6872
aI7082
aI7297
aI7505
aI7719
aI7928
asS'num_passes'
p159
(lp160
g18
(g22
S'\x83\xacc\x06Y\xc7D@'
p161
tp162
Rp163
ag18
(g22
S'{\xdb3Z=\xb8D@'
p164
tp165
Rp166
ag18
(g22
S'\x94\x11\xa9\x0f\xef\x94D@'
p167
tp168
Rp169
ag18
(g22
S'\xa4s\x95\xca\x8b\x04E@'
p170
tp171
Rp172
ag18
(g22
S'\xfbAN\x9e\xcd\xfcD@'
p173
tp174
Rp175
ag18
(g22
S'3/\x89z5\x82D@'
p176
tp177
Rp178
ag18
(g22
S'\x84v\x14\xa0a\x96D@'
p179
tp180
Rp181
ag18
(g22
S'$\xdf\xcaU\x1c0D@'
p182
tp183
Rp184
ag18
(g22
S'u%\x0b\x1b\xcc{D@'
p185
tp186
Rp187
ag18
(g22
S'\xd6\xf81\x17\xd8\xf1C@'
p188
tp189
Rp190
ag18
(g22
S'2\xc8\x1cL$\xddC@'
p191
tp192
Rp193
ag18
(g22
S'\x96\xec\xac\x07\ttC@'
p194
tp195
Rp196
ag18
(g22
S'Ti\x03\xa8\xd2\x06C@'
p197
tp198
Rp199
ag18
(g22
S'\xb8\x12)\xab\x8d\xf4B@'
p200
tp201
Rp202
ag18
(g22
S'\xc3\xae\x8a\x84\xb4mB@'
p203
tp204
Rp205
ag18
(g22
S'm\x80\x9a\\\xe8yB@'
p206
tp207
Rp208
ag18
(g22
S'"\x8eJ\xd7\rqB@'
p209
tp210
Rp211
ag18
(g22
S'|\x1d\x03\xb4\xc6~B@'
p212
tp213
Rp214
ag18
(g22
S'\xab\xdd\x81\xfe\xcdtB@'
p215
tp216
Rp217
ag18
(g22
S"\x97\xe5\x19'\x9a\x06B@"
p218
tp219
Rp220
ag18
(g22
S'~\xb5\xec#[\x92A@'
p221
tp222
Rp223
ag18
(g22
S'\x00\xbb7\x84\x01\xb0A@'
p224
tp225
Rp226
ag18
(g22
S'\xe3\xfb\xfc0h\xccA@'
p227
tp228
Rp229
ag18
(g22
S'\xdf\xac\xf5\xa0`\xd5A@'
p230
tp231
Rp232
ag18
(g22
S'\xea\x11\x9e[>\xcdA@'
p233
tp234
Rp235
ag18
(g22
S'\xf0\xebN\x14\x12\xa9A@'
p236
tp237
Rp238
ag18
(g22
S'\xc3\xff\x82\x9at\xceA@'
p239
tp240
Rp241
ag18
(g22
S'Z\xf2\xef\xa2\xef\xd6A@'
p242
tp243
Rp244
ag18
(g22
S'\xa0\x1b\tO\xb6\xbaA@'
p245
tp246
Rp247
ag18
(g22
S'8l\x18\xba+\x92A@'
p248
tp249
Rp250
ag18
(g22
S'\xd1\xdb,\xf9_\x9aA@'
p251
tp252
Rp253
ag18
(g22
S'o\xc0Z`s\x8cA@'
p254
tp255
Rp256
ag18
(g22
S'\xad\xf3\x0e\xf2\xe6\x93A@'
p257
tp258
Rp259
ag18
(g22
S';\x80\xb6\xdf[\xa8A@'
p260
tp261
Rp262
ag18
(g22
S'WjB\xb2^\xb8A@'
p263
tp264
Rp265
as.