(dp0
S'explorations'
p1
ccopy_reg
_reconstructor
p2
(cdqn_utils
PiecewiseSchedule
p3
c__builtin__
object
p4
Ntp5
Rp6
(dp7
S'_interpolation'
p8
cdqn_utils
linear_interpolation
p9
sS'_outside_value'
p10
F0.01
sS'_endpoints'
p11
(lp12
(I0
F0.2
tp13
a(F1000000.0
F0.1
tp14
a(F5000000.0
F0.01
tp15
asbsS'best_mean_rewards'
p16
(lp17
cnumpy.core.multiarray
scalar
p18
(cnumpy
dtype
p19
(S'f8'
p20
I0
I1
tp21
Rp22
(I3
S'<'
p23
NNNI-1
I-1
I0
tp24
bS'W\xc5g\x1b\xbd/\x14@'
p25
tp26
Rp27
ag27
ag27
ag27
ag18
(g22
S'\xc8t}\x95\xa4G\x14@'
p28
tp29
Rp30
ag18
(g22
S'\xa6{\xbf\xf3tn\x14@'
p31
tp32
Rp33
ag33
ag18
(g22
S'\x84\xce\xacj\xffw\x14@'
p34
tp35
Rp36
ag18
(g22
S'\xb7\xdf\xe4N}\x87\x14@'
p37
tp38
Rp39
ag39
ag39
ag39
ag39
ag39
ag18
(g22
S'S\xeeG\xd4w\xa6\x14@'
p40
tp41
Rp42
asS'learning_rates'
p43
(lp44
F0.0001
aF0.0001
aF0.0001
aF0.0001
aF0.0001
aF0.0001
aF0.0001
aF0.0001
aF0.0001
aF0.0001
aF0.0001
aF0.0001
aF0.0001
aF0.0001
aF0.0001
asS'mean_rewards'
p45
(lp46
g18
(g22
S'\x14!\xd7\xf4\xe8\xe5\x12@'
p47
tp48
Rp49
ag18
(g22
S'=\x94h!\xe3\x9e\x13@'
p50
tp51
Rp52
ag18
(g22
S'cV\xf76V\xce\x13@'
p53
tp54
Rp55
ag18
(g22
S'3u\x15#0\xba\x13@'
p56
tp57
Rp58
ag18
(g22
S'\xc8t}\x95\xa4G\x14@'
p59
tp60
Rp61
ag18
(g22
S'>\x8b*\x92_\x96\x13@'
p62
tp63
Rp64
ag18
(g22
S'B\xba\x15\x0c\xd2\x80\x13@'
p65
tp66
Rp67
ag18
(g22
S'\x01\x06Z\xd3\xd7r\x14@'
p68
tp69
Rp70
ag18
(g22
S'\x8b\xda_\x0b)D\x13@'
p71
tp72
Rp73
ag18
(g22
S'\x14QP\xd9\xe3\x1d\x14@'
p74
tp75
Rp76
ag18
(g22
S'\x86\xb7jg\xcf\xd9\x13@'
p77
tp78
Rp79
ag18
(g22
S'C\x1f\x98\xd7\x9c\xcb\x13@'
p80
tp81
Rp82
ag18
(g22
S'\x0f\xf5^ku\xc4\x13@'
p83
tp84
Rp85
ag18
(g22
S'+1\x17\xb6AX\x13@'
p86
tp87
Rp88
ag18
(g22
S'C\xb4\xd6\xce\x14\xb5\x13@'
p89
tp90
Rp91
asS'ts'
p92
(lp93
I60000
aI70000
aI80000
aI90000
aI100000
aI110000
aI120000
aI130000
aI140000
aI150000
aI160000
aI170000
aI180000
aI190000
aI200000
asS'episodes'
p94
(lp95
I1076
aI1234
aI1422
aI1625
aI1817
aI2019
aI2221
aI2416
aI2620
aI2812
aI3007
aI3203
aI3402
aI3598
aI3803
asS'num_passes'
p96
(lp97
g18
(g22
S'\x83\xacc\x06Y\xc7D@'
p98
tp99
Rp100
ag18
(g22
S'{\xdb3Z=\xb8D@'
p101
tp102
Rp103
ag18
(g22
S'\x94\x11\xa9\x0f\xef\x94D@'
p104
tp105
Rp106
ag18
(g22
S'\xa4s\x95\xca\x8b\x04E@'
p107
tp108
Rp109
ag18
(g22
S'\xfbAN\x9e\xcd\xfcD@'
p110
tp111
Rp112
ag18
(g22
S'3/\x89z5\x82D@'
p113
tp114
Rp115
ag18
(g22
S'\x84v\x14\xa0a\x96D@'
p116
tp117
Rp118
ag18
(g22
S'$\xdf\xcaU\x1c0D@'
p119
tp120
Rp121
ag18
(g22
S'u%\x0b\x1b\xcc{D@'
p122
tp123
Rp124
ag18
(g22
S'\xd6\xf81\x17\xd8\xf1C@'
p125
tp126
Rp127
ag18
(g22
S'2\xc8\x1cL$\xddC@'
p128
tp129
Rp130
ag18
(g22
S'\x96\xec\xac\x07\ttC@'
p131
tp132
Rp133
ag18
(g22
S'Ti\x03\xa8\xd2\x06C@'
p134
tp135
Rp136
ag18
(g22
S'\xb8\x12)\xab\x8d\xf4B@'
p137
tp138
Rp139
ag18
(g22
S'\xc3\xae\x8a\x84\xb4mB@'
p140
tp141
Rp142
as.