(dp0
S'explorations'
p1
ccopy_reg
_reconstructor
p2
(cdqn_utils
PiecewiseSchedule
p3
c__builtin__
object
p4
Ntp5
Rp6
(dp7
S'_interpolation'
p8
cdqn_utils
linear_interpolation
p9
sS'_outside_value'
p10
F0.01
sS'_endpoints'
p11
(lp12
(I0
F0.2
tp13
a(F1000000.0
F0.1
tp14
a(F5000000.0
F0.01
tp15
asbsS'best_mean_rewards'
p16
(lp17
cnumpy.core.multiarray
scalar
p18
(cnumpy
dtype
p19
(S'f8'
p20
I0
I1
tp21
Rp22
(I3
S'<'
p23
NNNI-1
I-1
I0
tp24
bS'W\xc5g\x1b\xbd/\x14@'
p25
tp26
Rp27
ag27
ag27
ag27
ag18
(g22
S'\xc8t}\x95\xa4G\x14@'
p28
tp29
Rp30
ag18
(g22
S'\xa6{\xbf\xf3tn\x14@'
p31
tp32
Rp33
ag33
ag18
(g22
S'\x84\xce\xacj\xffw\x14@'
p34
tp35
Rp36
ag18
(g22
S'\xb7\xdf\xe4N}\x87\x14@'
p37
tp38
Rp39
ag39
ag39
ag39
ag39
ag39
ag18
(g22
S'S\xeeG\xd4w\xa6\x14@'
p40
tp41
Rp42
ag42
ag42
ag42
ag42
ag42
ag42
ag42
ag18
(g22
S'\xcd\xa8@\xa9%\x00\x15@'
p43
tp44
Rp45
ag45
ag45
ag45
ag45
ag45
ag45
ag45
ag45
ag45
ag45
ag45
ag45
ag45
ag45
ag45
ag45
ag45
ag45
ag45
ag45
ag45
ag45
ag45
ag45
ag45
ag45
ag45
ag45
ag45
ag45
ag45
ag45
ag45
ag45
ag45
ag45
ag45
ag45
ag45
ag45
ag45
ag45
ag45
ag45
ag45
ag45
ag45
ag45
ag45
ag45
ag45
ag45
asS'learning_rates'
p46
(lp47
F0.0001
aF0.0001
aF0.0001
aF0.0001
aF0.0001
aF0.0001
aF0.0001
aF0.0001
aF0.0001
aF0.0001
aF0.0001
aF0.0001
aF0.0001
aF0.0001
aF0.0001
aF0.0001
aF0.0001
aF0.0001
aF0.0001
aF0.0001
aF0.0001
aF0.0001
aF0.0001
aF0.0001
aF0.0001
aF0.0001
aF0.0001
aF0.0001
aF0.0001
aF0.0001
aF0.0001
aF0.0001
aF0.0001
aF0.0001
aF0.0001
aF0.0001
aF0.0001
aF0.0001
aF0.0001
aF0.0001
aF0.0001
aF0.0001
aF0.0001
aF0.0001
aF0.0001
aF0.0001
aF0.0001
aF0.0001
aF0.0001
aF0.0001
aF0.0001
aF0.0001
aF0.0001
aF0.0001
aF0.0001
aF0.0001
aF0.0001
aF0.0001
aF0.0001
aF0.0001
aF0.0001
aF0.0001
aF0.0001
aF0.0001
aF0.0001
aF0.0001
aF0.0001
aF0.0001
aF0.0001
aF0.0001
aF0.0001
aF0.0001
aF0.0001
aF0.0001
aF0.0001
asS'mean_rewards'
p48
(lp49
g18
(g22
S'\x14!\xd7\xf4\xe8\xe5\x12@'
p50
tp51
Rp52
ag18
(g22
S'=\x94h!\xe3\x9e\x13@'
p53
tp54
Rp55
ag18
(g22
S'cV\xf76V\xce\x13@'
p56
tp57
Rp58
ag18
(g22
S'3u\x15#0\xba\x13@'
p59
tp60
Rp61
ag18
(g22
S'\xc8t}\x95\xa4G\x14@'
p62
tp63
Rp64
ag18
(g22
S'>\x8b*\x92_\x96\x13@'
p65
tp66
Rp67
ag18
(g22
S'B\xba\x15\x0c\xd2\x80\x13@'
p68
tp69
Rp70
ag18
(g22
S'\x01\x06Z\xd3\xd7r\x14@'
p71
tp72
Rp73
ag18
(g22
S'\x8b\xda_\x0b)D\x13@'
p74
tp75
Rp76
ag18
(g22
S'\x14QP\xd9\xe3\x1d\x14@'
p77
tp78
Rp79
ag18
(g22
S'\x86\xb7jg\xcf\xd9\x13@'
p80
tp81
Rp82
ag18
(g22
S'C\x1f\x98\xd7\x9c\xcb\x13@'
p83
tp84
Rp85
ag18
(g22
S'\x0f\xf5^ku\xc4\x13@'
p86
tp87
Rp88
ag18
(g22
S'+1\x17\xb6AX\x13@'
p89
tp90
Rp91
ag18
(g22
S'C\xb4\xd6\xce\x14\xb5\x13@'
p92
tp93
Rp94
ag18
(g22
S'5@x\x9f\x04\x9d\x13@'
p95
tp96
Rp97
ag18
(g22
S'U\x9d\xc0\xb6\xdf\xf8\x13@'
p98
tp99
Rp100
ag18
(g22
S'\xaa\x0f~I\x17\x88\x13@'
p101
tp102
Rp103
ag18
(g22
S'tNF\x9d\xee\x0c\x14@'
p104
tp105
Rp106
ag18
(g22
S'\xa5\xae5\xde;#\x14@'
p107
tp108
Rp109
ag18
(g22
S'4\xba\xaaRz\xe8\x13@'
p110
tp111
Rp112
ag18
(g22
S'\x83K\xf0\xcbT\xfa\x13@'
p113
tp114
Rp115
ag18
(g22
S'\x0e\x97\x0c\xf8\xa8B\x14@'
p116
tp117
Rp118
ag18
(g22
S'\xb3\x8a\xb9\xe5B\xff\x13@'
p119
tp120
Rp121
ag18
(g22
S'6,\xab\xdf\xc3\x91\x13@'
p122
tp123
Rp124
ag18
(g22
S'\x93\xa6\x99\x18M\x01\x14@'
p125
tp126
Rp127
ag18
(g22
S'C\x86\xf9\xdf\x8d\xb5\x13@'
p128
tp129
Rp130
ag18
(g22
S'US\xa4\xde\x92\xd6\x13@'
p131
tp132
Rp133
ag18
(g22
S'N\x8d\xac\x9a\xaaL\x14@'
p134
tp135
Rp136
ag18
(g22
S'd\xe3\xcdd^\r\x14@'
p137
tp138
Rp139
ag18
(g22
S'xowg\x17\x82\x13@'
p140
tp141
Rp142
ag18
(g22
S'VS-\x9e-q\x14@'
p143
tp144
Rp145
ag18
(g22
S'\x99k\x0c\xa5@C\x14@'
p146
tp147
Rp148
ag18
(g22
S'X\xc2\x0f4Q@\x14@'
p149
tp150
Rp151
ag18
(g22
S'\xcd\x11\x8b\x96cU\x14@'
p152
tp153
Rp154
ag18
(g22
S',\x02\xf2\xce\xe0%\x14@'
p155
tp156
Rp157
ag18
(g22
S'|\r\xf6YNa\x14@'
p158
tp159
Rp160
ag18
(g22
S'\x9f\x87<X\x18$\x14@'
p161
tp162
Rp163
ag18
(g22
S'l$\x97\xc8\x9eA\x13@'
p164
tp165
Rp166
ag18
(g22
S'\xbc~\xafo\x04\xb0\x13@'
p167
tp168
Rp169
ag18
(g22
S'*\xae}7\xea9\x14@'
p170
tp171
Rp172
ag18
(g22
S'!\xc4J\xab\xddN\x14@'
p173
tp174
Rp175
ag18
(g22
S'\x01y\xee\xb6{\x89\x13@'
p176
tp177
Rp178
ag18
(g22
S'}\x1do^\xbfD\x14@'
p179
tp180
Rp181
ag18
(g22
S'0^-\x17\xa4[\x14@'
p182
tp183
Rp184
ag18
(g22
S'L-\x8e \x8b\xf1\x13@'
p185
tp186
Rp187
ag18
(g22
S'\x94\x12 \xf1\xc0\x86\x14@'
p188
tp189
Rp190
ag18
(g22
S'\xe7\x8e|\x93c\xdb\x13@'
p191
tp192
Rp193
ag18
(g22
S'\xc6\xe9\xe5\xd2\xc3r\x14@'
p194
tp195
Rp196
ag18
(g22
S'H^f5\x0f\x0f\x14@'
p197
tp198
Rp199
ag18
(g22
S'3\x0e\xe6Z\x95\xc8\x14@'
p200
tp201
Rp202
ag18
(g22
S'\xd3O\x12\x07\xfd\x89\x14@'
p203
tp204
Rp205
ag18
(g22
S'\xd6}Z7g(\x14@'
p206
tp207
Rp208
ag18
(g22
S'!9\x8e\xfb!U\x13@'
p209
tp210
Rp211
ag18
(g22
S'4\xc0\xc4u\xf1\xad\x13@'
p212
tp213
Rp214
ag18
(g22
S'#GO\xcb\x98\x0f\x14@'
p215
tp216
Rp217
ag18
(g22
S'\xac\xa62\xd5\xe0\x12\x14@'
p218
tp219
Rp220
ag18
(g22
S'\xe3\xc78#\xd3d\x13@'
p221
tp222
Rp223
ag18
(g22
S'p\x06\x80\xe2V<\x14@'
p224
tp225
Rp226
ag18
(g22
S'{\tbx\xfbT\x14@'
p227
tp228
Rp229
ag18
(g22
S'\x89nRA-\x93\x13@'
p230
tp231
Rp232
ag18
(g22
S'a\xb6(\x1f<\xc2\x13@'
p233
tp234
Rp235
ag18
(g22
S'\x98\xbeb\xc7l*\x14@'
p236
tp237
Rp238
ag18
(g22
S'C\x11\x00\x9b/-\x14@'
p239
tp240
Rp241
ag18
(g22
S'\x07\x81i,3\xb0\x13@'
p242
tp243
Rp244
ag18
(g22
S'$\xac\xd2O>\x17\x14@'
p245
tp246
Rp247
ag18
(g22
S'\xed\x94\x803\xe8\xc2\x13@'
p248
tp249
Rp250
ag18
(g22
S'\xa6v\x8fO\xd1\xba\x13@'
p251
tp252
Rp253
ag18
(g22
S'\xca\xd9n\xdf\xfd\xaa\x13@'
p254
tp255
Rp256
ag18
(g22
S'\rdP+;%\x14@'
p257
tp258
Rp259
ag18
(g22
S'\xcd\xa8i#B\xa9\x13@'
p260
tp261
Rp262
ag18
(g22
S'M\x96\xd9\x1dv\xe7\x13@'
p263
tp264
Rp265
ag18
(g22
S'\x08\xf5\xa5\xaf!h\x14@'
p266
tp267
Rp268
ag18
(g22
S'\x81\xe1\xdeG\xf4\xc7\x13@'
p269
tp270
Rp271
ag18
(g22
S'!\xaeq\xad\x06\x9a\x13@'
p272
tp273
Rp274
asS'ts'
p275
(lp276
I60000
aI70000
aI80000
aI90000
aI100000
aI110000
aI120000
aI130000
aI140000
aI150000
aI160000
aI170000
aI180000
aI190000
aI200000
aI210000
aI220000
aI230000
aI240000
aI250000
aI260000
aI270000
aI280000
aI290000
aI300000
aI310000
aI320000
aI330000
aI340000
aI350000
aI360000
aI370000
aI380000
aI390000
aI400000
aI410000
aI420000
aI430000
aI440000
aI450000
aI460000
aI470000
aI480000
aI490000
aI500000
aI510000
aI520000
aI530000
aI540000
aI550000
aI560000
aI570000
aI580000
aI590000
aI600000
aI610000
aI620000
aI630000
aI640000
aI650000
aI660000
aI670000
aI680000
aI690000
aI700000
aI710000
aI720000
aI730000
aI740000
aI750000
aI760000
aI770000
aI780000
aI790000
aI800000
asS'episodes'
p277
(lp278
I1076
aI1234
aI1422
aI1625
aI1817
aI2019
aI2221
aI2416
aI2620
aI2812
aI3007
aI3203
aI3402
aI3598
aI3803
aI3997
aI4206
aI4404
aI4605
aI4813
aI5011
aI5214
aI5417
aI5627
aI5832
aI6027
aI6242
aI6455
aI6665
aI6872
aI7082
aI7297
aI7505
aI7719
aI7928
aI8129
aI8337
aI8551
aI8757
aI8970
aI9176
aI9378
aI9594
aI9808
aI10015
aI10220
aI10430
aI10634
aI10847
aI11050
aI11258
aI11466
aI11676
aI11879
aI12081
aI12292
aI12500
aI12708
aI12917
aI13121
aI13324
aI13531
aI13724
aI13926
aI14142
aI14356
aI14561
aI14766
aI14974
aI15189
aI15393
aI15594
aI15805
aI16013
aI16208
asS'num_passes'
p279
(lp280
g18
(g22
S'\x83\xacc\x06Y\xc7D@'
p281
tp282
Rp283
ag18
(g22
S'{\xdb3Z=\xb8D@'
p284
tp285
Rp286
ag18
(g22
S'\x94\x11\xa9\x0f\xef\x94D@'
p287
tp288
Rp289
ag18
(g22
S'\xa4s\x95\xca\x8b\x04E@'
p290
tp291
Rp292
ag18
(g22
S'\xfbAN\x9e\xcd\xfcD@'
p293
tp294
Rp295
ag18
(g22
S'3/\x89z5\x82D@'
p296
tp297
Rp298
ag18
(g22
S'\x84v\x14\xa0a\x96D@'
p299
tp300
Rp301
ag18
(g22
S'$\xdf\xcaU\x1c0D@'
p302
tp303
Rp304
ag18
(g22
S'u%\x0b\x1b\xcc{D@'
p305
tp306
Rp307
ag18
(g22
S'\xd6\xf81\x17\xd8\xf1C@'
p308
tp309
Rp310
ag18
(g22
S'2\xc8\x1cL$\xddC@'
p311
tp312
Rp313
ag18
(g22
S'\x96\xec\xac\x07\ttC@'
p314
tp315
Rp316
ag18
(g22
S'Ti\x03\xa8\xd2\x06C@'
p317
tp318
Rp319
ag18
(g22
S'\xb8\x12)\xab\x8d\xf4B@'
p320
tp321
Rp322
ag18
(g22
S'\xc3\xae\x8a\x84\xb4mB@'
p323
tp324
Rp325
ag18
(g22
S'm\x80\x9a\\\xe8yB@'
p326
tp327
Rp328
ag18
(g22
S'"\x8eJ\xd7\rqB@'
p329
tp330
Rp331
ag18
(g22
S'|\x1d\x03\xb4\xc6~B@'
p332
tp333
Rp334
ag18
(g22
S'\xab\xdd\x81\xfe\xcdtB@'
p335
tp336
Rp337
ag18
(g22
S"\x97\xe5\x19'\x9a\x06B@"
p338
tp339
Rp340
ag18
(g22
S'~\xb5\xec#[\x92A@'
p341
tp342
Rp343
ag18
(g22
S'\x00\xbb7\x84\x01\xb0A@'
p344
tp345
Rp346
ag18
(g22
S'\xe3\xfb\xfc0h\xccA@'
p347
tp348
Rp349
ag18
(g22
S'\xdf\xac\xf5\xa0`\xd5A@'
p350
tp351
Rp352
ag18
(g22
S'\xea\x11\x9e[>\xcdA@'
p353
tp354
Rp355
ag18
(g22
S'\xf0\xebN\x14\x12\xa9A@'
p356
tp357
Rp358
ag18
(g22
S'\xc3\xff\x82\x9at\xceA@'
p359
tp360
Rp361
ag18
(g22
S'Z\xf2\xef\xa2\xef\xd6A@'
p362
tp363
Rp364
ag18
(g22
S'\xa0\x1b\tO\xb6\xbaA@'
p365
tp366
Rp367
ag18
(g22
S'8l\x18\xba+\x92A@'
p368
tp369
Rp370
ag18
(g22
S'\xd1\xdb,\xf9_\x9aA@'
p371
tp372
Rp373
ag18
(g22
S'o\xc0Z`s\x8cA@'
p374
tp375
Rp376
ag18
(g22
S'\xad\xf3\x0e\xf2\xe6\x93A@'
p377
tp378
Rp379
ag18
(g22
S';\x80\xb6\xdf[\xa8A@'
p380
tp381
Rp382
ag18
(g22
S'WjB\xb2^\xb8A@'
p383
tp384
Rp385
ag18
(g22
S';C\x8f5\xee\xb8A@'
p386
tp387
Rp388
ag18
(g22
S'\x85\xa2M\x16\xc2\xb7A@'
p389
tp390
Rp391
ag18
(g22
S'7\xfe\x95\xc8.\xa6A@'
p392
tp393
Rp394
ag18
(g22
S'\xf9\x11\xbbp\xce\x93A@'
p395
tp396
Rp397
ag18
(g22
S'M\xadu\x7f\x83\x98A@'
p398
tp399
Rp400
ag18
(g22
S'u\t\x86\x0fq\x90A@'
p401
tp402
Rp403
ag18
(g22
S'@Fn\x03\xb5TA@'
p404
tp405
Rp406
ag18
(g22
S'X\x16\x9d\xfe\x998A@'
p407
tp408
Rp409
ag18
(g22
S'z\xc8Z~I-A@'
p410
tp411
Rp412
ag18
(g22
S'e\xdd\x83p\x9a?A@'
p413
tp414
Rp415
ag18
(g22
S'\x12\xf8U\xab\x12<A@'
p416
tp417
Rp418
ag18
(g22
S'O\xd6\x9e\xd5L7A@'
p419
tp420
Rp421
ag18
(g22
S'!s\xf0yw>A@'
p422
tp423
Rp424
ag18
(g22
S'\x9b\xee\xc6\xd3lHA@'
p425
tp426
Rp427
ag18
(g22
S'\x9f\xf3Q\xcb\xdbQA@'
p428
tp429
Rp430
ag18
(g22
S'\r\x8d2n5OA@'
p431
tp432
Rp433
ag18
(g22
S'\xac4\xef\xfdUAA@'
p434
tp435
Rp436
ag18
(g22
S'3\x16a(%FA@'
p437
tp438
Rp439
ag18
(g22
S'\xbeL\xb3\x87\xe8PA@'
p440
tp441
Rp442
ag18
(g22
S'\xd2Z\x1f\xb1HXA@'
p443
tp444
Rp445
ag18
(g22
S'\x03\xbasR\x87KA@'
p446
tp447
Rp448
ag18
(g22
S'\xf0I\t\x17bxA@'
p449
tp450
Rp451
ag18
(g22
S'\x91\x12\xe3g\x1fwA@'
p452
tp453
Rp454
ag18
(g22
S'\xe9?\xc2\x07>qA@'
p455
tp456
Rp457
ag18
(g22
S'\xfa\xd3\x05\xfc\x00[A@'
p458
tp459
Rp460
ag18
(g22
S'N\xe8\xca\x10WcA@'
p461
tp462
Rp463
ag18
(g22
S'\xc6\x9eT]ibA@'
p464
tp465
Rp466
ag18
(g22
S'\xa3>\x80!&[A@'
p467
tp468
Rp469
ag18
(g22
S'\x95\xb4\x8c\x13\x8dqA@'
p470
tp471
Rp472
ag18
(g22
S'C\x9bz?\xf8sA@'
p473
tp474
Rp475
ag18
(g22
S'\x9ay\xcfi\xbd\x82A@'
p476
tp477
Rp478
ag18
(g22
S'\x8e\xae\x92\xa2\xc3aA@'
p479
tp480
Rp481
ag18
(g22
S'{B\xb8eokA@'
p482
tp483
Rp484
ag18
(g22
S'\xd9\xce\x04\xad\x06gA@'
p485
tp486
Rp487
ag18
(g22
S'\xf3\x89\x0e\xaedbA@'
p488
tp489
Rp490
ag18
(g22
S'\x91d6\x01\x9chA@'
p491
tp492
Rp493
ag18
(g22
S'\xd4%\xd6\xfeVkA@'
p494
tp495
Rp496
ag18
(g22
S'\xd1\x0f\x8e\x0f\xd6mA@'
p497
tp498
Rp499
ag18
(g22
S'Vb\xe9\x01\trA@'
p500
tp501
Rp502
ag18
(g22
S'\x9f\x90X0\xd9|A@'
p503
tp504
Rp505
as.